
AudioToFreqSpectrum.elf:     file format elf32-avr

Sections:
Idx Name          Size      VMA       LMA       File off  Algn
  0 .text         000015ee  00000000  00000000  00000094  2**1
                  CONTENTS, ALLOC, LOAD, READONLY, CODE
  1 .data         00000210  00800060  000015ee  00001682  2**0
                  CONTENTS, ALLOC, LOAD, DATA
  2 .bss          00000181  00800270  00800270  00001892  2**0
                  ALLOC
  3 .comment      0000005c  00000000  00000000  00001892  2**0
                  CONTENTS, READONLY
  4 .note.gnu.avr.deviceinfo 0000003c  00000000  00000000  000018f0  2**2
                  CONTENTS, READONLY
  5 .debug_aranges 000000f8  00000000  00000000  0000192c  2**0
                  CONTENTS, READONLY, DEBUGGING
  6 .debug_info   00001a09  00000000  00000000  00001a24  2**0
                  CONTENTS, READONLY, DEBUGGING
  7 .debug_abbrev 00000782  00000000  00000000  0000342d  2**0
                  CONTENTS, READONLY, DEBUGGING
  8 .debug_line   00000c91  00000000  00000000  00003baf  2**0
                  CONTENTS, READONLY, DEBUGGING
  9 .debug_frame  0000032c  00000000  00000000  00004840  2**2
                  CONTENTS, READONLY, DEBUGGING
 10 .debug_str    00000541  00000000  00000000  00004b6c  2**0
                  CONTENTS, READONLY, DEBUGGING
 11 .debug_loc    0000111a  00000000  00000000  000050ad  2**0
                  CONTENTS, READONLY, DEBUGGING
 12 .debug_ranges 000000e8  00000000  00000000  000061c7  2**0
                  CONTENTS, READONLY, DEBUGGING

Disassembly of section .text:

00000000 <__vectors>:
       0:	0c 94 fa 02 	jmp	0x5f4	; 0x5f4 <__ctors_end>
       4:	0c 94 17 03 	jmp	0x62e	; 0x62e <__bad_interrupt>
       8:	0c 94 17 03 	jmp	0x62e	; 0x62e <__bad_interrupt>
       c:	0c 94 17 03 	jmp	0x62e	; 0x62e <__bad_interrupt>
      10:	0c 94 17 03 	jmp	0x62e	; 0x62e <__bad_interrupt>
      14:	0c 94 17 03 	jmp	0x62e	; 0x62e <__bad_interrupt>
      18:	0c 94 17 03 	jmp	0x62e	; 0x62e <__bad_interrupt>
      1c:	0c 94 17 03 	jmp	0x62e	; 0x62e <__bad_interrupt>
      20:	0c 94 17 03 	jmp	0x62e	; 0x62e <__bad_interrupt>
      24:	0c 94 17 03 	jmp	0x62e	; 0x62e <__bad_interrupt>
      28:	0c 94 17 03 	jmp	0x62e	; 0x62e <__bad_interrupt>
      2c:	0c 94 17 03 	jmp	0x62e	; 0x62e <__bad_interrupt>
      30:	0c 94 17 03 	jmp	0x62e	; 0x62e <__bad_interrupt>
      34:	0c 94 17 03 	jmp	0x62e	; 0x62e <__bad_interrupt>
      38:	0c 94 17 03 	jmp	0x62e	; 0x62e <__bad_interrupt>
      3c:	0c 94 17 03 	jmp	0x62e	; 0x62e <__bad_interrupt>
      40:	0c 94 17 03 	jmp	0x62e	; 0x62e <__bad_interrupt>
      44:	0c 94 17 03 	jmp	0x62e	; 0x62e <__bad_interrupt>
      48:	0c 94 17 03 	jmp	0x62e	; 0x62e <__bad_interrupt>
      4c:	0c 94 17 03 	jmp	0x62e	; 0x62e <__bad_interrupt>
      50:	0c 94 17 03 	jmp	0x62e	; 0x62e <__bad_interrupt>

00000054 <__trampolines_end>:
      54:	00 00       	nop
      56:	ae 00       	.word	0x00ae	; ????
      58:	5c 01       	movw	r10, r24
      5a:	0b 02       	muls	r16, r27
      5c:	b9 02       	muls	r27, r25
      5e:	67 03       	mulsu	r22, r23
      60:	15 04       	cpc	r1, r5
      62:	c2 04       	cpc	r12, r2
      64:	6f 05       	cpc	r22, r15
      66:	1c 06       	cpc	r1, r28
      68:	c8 06       	cpc	r12, r24
      6a:	74 07       	cpc	r23, r20
      6c:	1f 08       	sbc	r1, r15
      6e:	c9 08       	sbc	r12, r9
      70:	73 09       	sbc	r23, r3
      72:	1c 0a       	sbc	r1, r28
      74:	c4 0a       	sbc	r12, r20
      76:	6b 0b       	sbc	r22, r27
      78:	12 0c       	add	r1, r2
      7a:	b7 0c       	add	r11, r7
      7c:	5c 0d       	add	r21, r12
      7e:	ff 0d       	add	r31, r15
      80:	a2 0e       	add	r10, r18
      82:	43 0f       	add	r20, r19
      84:	e3 0f       	add	r30, r19
      86:	82 10       	cpse	r8, r2
      88:	1f 11       	cpse	r17, r15
      8a:	bb 11       	cpse	r27, r11
      8c:	56 12       	cpse	r5, r22
      8e:	f0 12       	cpse	r15, r16
      90:	87 13       	cpse	r24, r23
      92:	1e 14       	cp	r1, r14
      94:	b3 14       	cp	r11, r3
      96:	46 15       	cp	r20, r6
      98:	d7 15       	cp	r29, r7
      9a:	67 16       	cp	r6, r23
      9c:	f5 16       	cp	r15, r21
      9e:	82 17       	cp	r24, r18
      a0:	0c 18       	sub	r0, r12
      a2:	95 18       	sub	r9, r5
      a4:	1b 19       	sub	r17, r11
      a6:	a0 19       	sub	r26, r0
      a8:	23 1a       	sub	r2, r19
      aa:	a3 1a       	sub	r10, r19
      ac:	22 1b       	sub	r18, r18
      ae:	9f 1b       	sub	r25, r31
      b0:	19 1c       	adc	r1, r9
      b2:	91 1c       	adc	r9, r1
      b4:	07 1d       	adc	r16, r7
      b6:	7b 1d       	adc	r23, r11
      b8:	ec 1d       	adc	r30, r12
      ba:	5b 1e       	adc	r5, r27
      bc:	c8 1e       	adc	r12, r24
      be:	32 1f       	adc	r19, r18
      c0:	9a 1f       	adc	r25, r26
      c2:	ff 1f       	adc	r31, r31
      c4:	62 20       	and	r6, r2
      c6:	c2 20       	and	r12, r2
      c8:	20 21       	and	r18, r0
      ca:	7b 21       	and	r23, r11
      cc:	d4 21       	and	r29, r4
      ce:	2a 22       	and	r2, r26
      d0:	7d 22       	and	r7, r29
      d2:	ce 22       	and	r12, r30
      d4:	1b 23       	and	r17, r27
      d6:	67 23       	and	r22, r23
      d8:	af 23       	and	r26, r31
      da:	f5 23       	and	r31, r21
      dc:	37 24       	eor	r3, r7
      de:	77 24       	eor	r7, r7
      e0:	b4 24       	eor	r11, r4
      e2:	ef 24       	eor	r14, r15
      e4:	26 25       	eor	r18, r6
      e6:	5b 25       	eor	r21, r11
      e8:	8c 25       	eor	r24, r12
      ea:	bb 25       	eor	r27, r11
      ec:	e6 25       	eor	r30, r6
      ee:	0f 26       	eor	r0, r31
      f0:	35 26       	eor	r3, r21
      f2:	58 26       	eor	r5, r24
      f4:	78 26       	eor	r7, r24
      f6:	94 26       	eor	r9, r20
      f8:	ae 26       	eor	r10, r30
      fa:	c5 26       	eor	r12, r21
      fc:	d9 26       	eor	r13, r25
      fe:	e9 26       	eor	r14, r25
     100:	f7 26       	eor	r15, r23
     102:	02 27       	eor	r16, r18
     104:	09 27       	eor	r16, r25
     106:	0e 27       	eor	r16, r30
     108:	10 27       	eor	r17, r16
     10a:	0e 27       	eor	r16, r30
     10c:	09 27       	eor	r16, r25
     10e:	02 27       	eor	r16, r18
     110:	f7 26       	eor	r15, r23
     112:	e9 26       	eor	r14, r25
     114:	d9 26       	eor	r13, r25
     116:	c5 26       	eor	r12, r21
     118:	ae 26       	eor	r10, r30
     11a:	94 26       	eor	r9, r20
     11c:	78 26       	eor	r7, r24
     11e:	58 26       	eor	r5, r24
     120:	35 26       	eor	r3, r21
     122:	0f 26       	eor	r0, r31
     124:	e6 25       	eor	r30, r6
     126:	bb 25       	eor	r27, r11
     128:	8c 25       	eor	r24, r12
     12a:	5b 25       	eor	r21, r11
     12c:	26 25       	eor	r18, r6
     12e:	ef 24       	eor	r14, r15
     130:	b4 24       	eor	r11, r4
     132:	77 24       	eor	r7, r7
     134:	37 24       	eor	r3, r7
     136:	f5 23       	and	r31, r21
     138:	af 23       	and	r26, r31
     13a:	67 23       	and	r22, r23
     13c:	1b 23       	and	r17, r27
     13e:	ce 22       	and	r12, r30
     140:	7d 22       	and	r7, r29
     142:	2a 22       	and	r2, r26
     144:	d4 21       	and	r29, r4
     146:	7b 21       	and	r23, r11
     148:	20 21       	and	r18, r0
     14a:	c2 20       	and	r12, r2
     14c:	62 20       	and	r6, r2
     14e:	ff 1f       	adc	r31, r31
     150:	9a 1f       	adc	r25, r26
     152:	32 1f       	adc	r19, r18
     154:	c8 1e       	adc	r12, r24
     156:	5b 1e       	adc	r5, r27
     158:	ec 1d       	adc	r30, r12
     15a:	7b 1d       	adc	r23, r11
     15c:	07 1d       	adc	r16, r7
     15e:	91 1c       	adc	r9, r1
     160:	19 1c       	adc	r1, r9
     162:	9f 1b       	sub	r25, r31
     164:	22 1b       	sub	r18, r18
     166:	a3 1a       	sub	r10, r19
     168:	23 1a       	sub	r2, r19
     16a:	a0 19       	sub	r26, r0
     16c:	1b 19       	sub	r17, r11
     16e:	95 18       	sub	r9, r5
     170:	0c 18       	sub	r0, r12
     172:	82 17       	cp	r24, r18
     174:	f5 16       	cp	r15, r21
     176:	67 16       	cp	r6, r23
     178:	d7 15       	cp	r29, r7
     17a:	46 15       	cp	r20, r6
     17c:	b3 14       	cp	r11, r3
     17e:	1e 14       	cp	r1, r14
     180:	87 13       	cpse	r24, r23
     182:	f0 12       	cpse	r15, r16
     184:	56 12       	cpse	r5, r22
     186:	bb 11       	cpse	r27, r11
     188:	1f 11       	cpse	r17, r15
     18a:	82 10       	cpse	r8, r2
     18c:	e3 0f       	add	r30, r19
     18e:	43 0f       	add	r20, r19
     190:	a2 0e       	add	r10, r18
     192:	ff 0d       	add	r31, r15
     194:	5c 0d       	add	r21, r12
     196:	b7 0c       	add	r11, r7
     198:	12 0c       	add	r1, r2
     19a:	6b 0b       	sbc	r22, r27
     19c:	c4 0a       	sbc	r12, r20
     19e:	1c 0a       	sbc	r1, r28
     1a0:	73 09       	sbc	r23, r3
     1a2:	c9 08       	sbc	r12, r9
     1a4:	1f 08       	sbc	r1, r15
     1a6:	74 07       	cpc	r23, r20
     1a8:	c8 06       	cpc	r12, r24
     1aa:	1c 06       	cpc	r1, r28
     1ac:	6f 05       	cpc	r22, r15
     1ae:	c2 04       	cpc	r12, r2
     1b0:	15 04       	cpc	r1, r5
     1b2:	67 03       	mulsu	r22, r23
     1b4:	b9 02       	muls	r27, r25
     1b6:	0b 02       	muls	r16, r27
     1b8:	5c 01       	movw	r10, r24
     1ba:	ae 00       	.word	0x00ae	; ????
     1bc:	00 00       	nop
     1be:	52 ff       	sbrs	r21, 2
     1c0:	a4 fe       	sbrs	r10, 4
     1c2:	f5 fd       	sbrc	r31, 5
     1c4:	47 fd       	sbrc	r20, 7
     1c6:	99 fc       	.word	0xfc99	; ????
     1c8:	eb fb       	.word	0xfbeb	; ????
     1ca:	3e fb       	.word	0xfb3e	; ????
     1cc:	91 fa       	bst	r9, 1
     1ce:	e4 f9       	bld	r30, 4
     1d0:	38 f9       	.word	0xf938	; ????
     1d2:	8c f8       	.word	0xf88c	; ????
     1d4:	e1 f7       	brne	.-8      	; 0x1ce <__trampolines_end+0x17a>
     1d6:	37 f7       	brid	.-52     	; 0x1a4 <__trampolines_end+0x150>
     1d8:	8d f6       	brhc	.-94     	; 0x17c <__trampolines_end+0x128>
     1da:	e4 f5       	brge	.+120    	; 0x254 <__trampolines_end+0x200>
     1dc:	3c f5       	brge	.+78     	; 0x22c <__trampolines_end+0x1d8>
     1de:	95 f4       	brhc	.+36     	; 0x204 <__trampolines_end+0x1b0>
     1e0:	ee f3       	brts	.-6      	; 0x1dc <__trampolines_end+0x188>
     1e2:	49 f3       	breq	.-46     	; 0x1b6 <__trampolines_end+0x162>
     1e4:	a4 f2       	brlt	.-88     	; 0x18e <__trampolines_end+0x13a>
     1e6:	01 f2       	breq	.-128    	; 0x168 <__trampolines_end+0x114>
     1e8:	5e f1       	brts	.+86     	; 0x240 <__trampolines_end+0x1ec>
     1ea:	bd f0       	brhs	.+46     	; 0x21a <__trampolines_end+0x1c6>
     1ec:	1d f0       	brhs	.+6      	; 0x1f4 <__trampolines_end+0x1a0>
     1ee:	7e ef       	ldi	r23, 0xFE	; 254
     1f0:	e1 ee       	ldi	r30, 0xE1	; 225
     1f2:	45 ee       	ldi	r20, 0xE5	; 229
     1f4:	aa ed       	ldi	r26, 0xDA	; 218
     1f6:	10 ed       	ldi	r17, 0xD0	; 208
     1f8:	79 ec       	ldi	r23, 0xC9	; 201
     1fa:	e2 eb       	ldi	r30, 0xB2	; 178
     1fc:	4d eb       	ldi	r20, 0xBD	; 189
     1fe:	ba ea       	ldi	r27, 0xAA	; 170
     200:	29 ea       	ldi	r18, 0xA9	; 169
     202:	99 e9       	ldi	r25, 0x99	; 153
     204:	0b e9       	ldi	r16, 0x9B	; 155
     206:	7e e8       	ldi	r23, 0x8E	; 142
     208:	f4 e7       	ldi	r31, 0x74	; 116
     20a:	6b e7       	ldi	r22, 0x7B	; 123
     20c:	e5 e6       	ldi	r30, 0x65	; 101
     20e:	60 e6       	ldi	r22, 0x60	; 96
     210:	dd e5       	ldi	r29, 0x5D	; 93
     212:	5d e5       	ldi	r21, 0x5D	; 93
     214:	de e4       	ldi	r29, 0x4E	; 78
     216:	61 e4       	ldi	r22, 0x41	; 65
     218:	e7 e3       	ldi	r30, 0x37	; 55
     21a:	6f e3       	ldi	r22, 0x3F	; 63
     21c:	f9 e2       	ldi	r31, 0x29	; 41
     21e:	85 e2       	ldi	r24, 0x25	; 37
     220:	14 e2       	ldi	r17, 0x24	; 36
     222:	a5 e1       	ldi	r26, 0x15	; 21
     224:	38 e1       	ldi	r19, 0x18	; 24
     226:	ce e0       	ldi	r28, 0x0E	; 14
     228:	66 e0       	ldi	r22, 0x06	; 6
     22a:	01 e0       	ldi	r16, 0x01	; 1
     22c:	9e df       	rcall	.-196    	; 0x16a <__trampolines_end+0x116>
     22e:	3e df       	rcall	.-388    	; 0xac <__trampolines_end+0x58>
     230:	e0 de       	rcall	.-576    	; 0xfffffff2 <__eeprom_end+0xff7efff2>
     232:	85 de       	rcall	.-758    	; 0xffffff3e <__eeprom_end+0xff7eff3e>
     234:	2c de       	rcall	.-936    	; 0xfffffe8e <__eeprom_end+0xff7efe8e>
     236:	d6 dd       	rcall	.-1108   	; 0xfffffde4 <__eeprom_end+0xff7efde4>
     238:	83 dd       	rcall	.-1274   	; 0xfffffd40 <__eeprom_end+0xff7efd40>
     23a:	32 dd       	rcall	.-1436   	; 0xfffffca0 <__eeprom_end+0xff7efca0>
     23c:	e5 dc       	rcall	.-1590   	; 0xfffffc08 <__eeprom_end+0xff7efc08>
     23e:	99 dc       	rcall	.-1742   	; 0xfffffb72 <__eeprom_end+0xff7efb72>
     240:	51 dc       	rcall	.-1886   	; 0xfffffae4 <__eeprom_end+0xff7efae4>
     242:	0b dc       	rcall	.-2026   	; 0xfffffa5a <__eeprom_end+0xff7efa5a>
     244:	c9 db       	rcall	.-2158   	; 0xfffff9d8 <__eeprom_end+0xff7ef9d8>
     246:	89 db       	rcall	.-2286   	; 0xfffff95a <__eeprom_end+0xff7ef95a>
     248:	4c db       	rcall	.-2408   	; 0xfffff8e2 <__eeprom_end+0xff7ef8e2>
     24a:	11 db       	rcall	.-2526   	; 0xfffff86e <__eeprom_end+0xff7ef86e>
     24c:	da da       	rcall	.-2636   	; 0xfffff802 <__eeprom_end+0xff7ef802>
     24e:	a5 da       	rcall	.-2742   	; 0xfffff79a <__eeprom_end+0xff7ef79a>
     250:	74 da       	rcall	.-2840   	; 0xfffff73a <__eeprom_end+0xff7ef73a>
     252:	45 da       	rcall	.-2934   	; 0xfffff6de <__eeprom_end+0xff7ef6de>
     254:	1a da       	rcall	.-3020   	; 0xfffff68a <__eeprom_end+0xff7ef68a>
     256:	f1 d9       	rcall	.-3102   	; 0xfffff63a <__eeprom_end+0xff7ef63a>
     258:	cb d9       	rcall	.-3178   	; 0xfffff5f0 <__eeprom_end+0xff7ef5f0>
     25a:	a8 d9       	rcall	.-3248   	; 0xfffff5ac <__eeprom_end+0xff7ef5ac>
     25c:	88 d9       	rcall	.-3312   	; 0xfffff56e <__eeprom_end+0xff7ef56e>
     25e:	6c d9       	rcall	.-3368   	; 0xfffff538 <__eeprom_end+0xff7ef538>
     260:	52 d9       	rcall	.-3420   	; 0xfffff506 <__eeprom_end+0xff7ef506>
     262:	3b d9       	rcall	.-3466   	; 0xfffff4da <__eeprom_end+0xff7ef4da>
     264:	27 d9       	rcall	.-3506   	; 0xfffff4b4 <__eeprom_end+0xff7ef4b4>
     266:	17 d9       	rcall	.-3538   	; 0xfffff496 <__eeprom_end+0xff7ef496>
     268:	09 d9       	rcall	.-3566   	; 0xfffff47c <__eeprom_end+0xff7ef47c>
     26a:	fe d8       	rcall	.-3588   	; 0xfffff468 <__eeprom_end+0xff7ef468>
     26c:	f7 d8       	rcall	.-3602   	; 0xfffff45c <__eeprom_end+0xff7ef45c>
     26e:	f2 d8       	rcall	.-3612   	; 0xfffff454 <__eeprom_end+0xff7ef454>
     270:	f0 d8       	rcall	.-3616   	; 0xfffff452 <__eeprom_end+0xff7ef452>
     272:	f2 d8       	rcall	.-3612   	; 0xfffff458 <__eeprom_end+0xff7ef458>
     274:	f7 d8       	rcall	.-3602   	; 0xfffff464 <__eeprom_end+0xff7ef464>
     276:	fe d8       	rcall	.-3588   	; 0xfffff474 <__eeprom_end+0xff7ef474>
     278:	09 d9       	rcall	.-3566   	; 0xfffff48c <__eeprom_end+0xff7ef48c>
     27a:	17 d9       	rcall	.-3538   	; 0xfffff4aa <__eeprom_end+0xff7ef4aa>
     27c:	27 d9       	rcall	.-3506   	; 0xfffff4cc <__eeprom_end+0xff7ef4cc>
     27e:	3b d9       	rcall	.-3466   	; 0xfffff4f6 <__eeprom_end+0xff7ef4f6>
     280:	52 d9       	rcall	.-3420   	; 0xfffff526 <__eeprom_end+0xff7ef526>
     282:	6c d9       	rcall	.-3368   	; 0xfffff55c <__eeprom_end+0xff7ef55c>
     284:	88 d9       	rcall	.-3312   	; 0xfffff596 <__eeprom_end+0xff7ef596>
     286:	a8 d9       	rcall	.-3248   	; 0xfffff5d8 <__eeprom_end+0xff7ef5d8>
     288:	cb d9       	rcall	.-3178   	; 0xfffff620 <__eeprom_end+0xff7ef620>
     28a:	f1 d9       	rcall	.-3102   	; 0xfffff66e <__eeprom_end+0xff7ef66e>
     28c:	1a da       	rcall	.-3020   	; 0xfffff6c2 <__eeprom_end+0xff7ef6c2>
     28e:	45 da       	rcall	.-2934   	; 0xfffff71a <__eeprom_end+0xff7ef71a>
     290:	74 da       	rcall	.-2840   	; 0xfffff77a <__eeprom_end+0xff7ef77a>
     292:	a5 da       	rcall	.-2742   	; 0xfffff7de <__eeprom_end+0xff7ef7de>
     294:	da da       	rcall	.-2636   	; 0xfffff84a <__eeprom_end+0xff7ef84a>
     296:	11 db       	rcall	.-2526   	; 0xfffff8ba <__eeprom_end+0xff7ef8ba>
     298:	4c db       	rcall	.-2408   	; 0xfffff932 <__eeprom_end+0xff7ef932>
     29a:	89 db       	rcall	.-2286   	; 0xfffff9ae <__eeprom_end+0xff7ef9ae>
     29c:	c9 db       	rcall	.-2158   	; 0xfffffa30 <__eeprom_end+0xff7efa30>
     29e:	0b dc       	rcall	.-2026   	; 0xfffffab6 <__eeprom_end+0xff7efab6>
     2a0:	51 dc       	rcall	.-1886   	; 0xfffffb44 <__eeprom_end+0xff7efb44>
     2a2:	99 dc       	rcall	.-1742   	; 0xfffffbd6 <__eeprom_end+0xff7efbd6>
     2a4:	e5 dc       	rcall	.-1590   	; 0xfffffc70 <__eeprom_end+0xff7efc70>
     2a6:	32 dd       	rcall	.-1436   	; 0xfffffd0c <__eeprom_end+0xff7efd0c>
     2a8:	83 dd       	rcall	.-1274   	; 0xfffffdb0 <__eeprom_end+0xff7efdb0>
     2aa:	d6 dd       	rcall	.-1108   	; 0xfffffe58 <__eeprom_end+0xff7efe58>
     2ac:	2c de       	rcall	.-936    	; 0xffffff06 <__eeprom_end+0xff7eff06>
     2ae:	85 de       	rcall	.-758    	; 0xffffffba <__eeprom_end+0xff7effba>
     2b0:	e0 de       	rcall	.-576    	; 0x72 <__trampolines_end+0x1e>
     2b2:	3e df       	rcall	.-388    	; 0x130 <__trampolines_end+0xdc>
     2b4:	9e df       	rcall	.-196    	; 0x1f2 <__trampolines_end+0x19e>
     2b6:	01 e0       	ldi	r16, 0x01	; 1
     2b8:	66 e0       	ldi	r22, 0x06	; 6
     2ba:	ce e0       	ldi	r28, 0x0E	; 14
     2bc:	38 e1       	ldi	r19, 0x18	; 24
     2be:	a5 e1       	ldi	r26, 0x15	; 21
     2c0:	14 e2       	ldi	r17, 0x24	; 36
     2c2:	85 e2       	ldi	r24, 0x25	; 37
     2c4:	f9 e2       	ldi	r31, 0x29	; 41
     2c6:	6f e3       	ldi	r22, 0x3F	; 63
     2c8:	e7 e3       	ldi	r30, 0x37	; 55
     2ca:	61 e4       	ldi	r22, 0x41	; 65
     2cc:	de e4       	ldi	r29, 0x4E	; 78
     2ce:	5d e5       	ldi	r21, 0x5D	; 93
     2d0:	dd e5       	ldi	r29, 0x5D	; 93
     2d2:	60 e6       	ldi	r22, 0x60	; 96
     2d4:	e5 e6       	ldi	r30, 0x65	; 101
     2d6:	6b e7       	ldi	r22, 0x7B	; 123
     2d8:	f4 e7       	ldi	r31, 0x74	; 116
     2da:	7e e8       	ldi	r23, 0x8E	; 142
     2dc:	0b e9       	ldi	r16, 0x9B	; 155
     2de:	99 e9       	ldi	r25, 0x99	; 153
     2e0:	29 ea       	ldi	r18, 0xA9	; 169
     2e2:	ba ea       	ldi	r27, 0xAA	; 170
     2e4:	4d eb       	ldi	r20, 0xBD	; 189
     2e6:	e2 eb       	ldi	r30, 0xB2	; 178
     2e8:	78 ec       	ldi	r23, 0xC8	; 200
     2ea:	10 ed       	ldi	r17, 0xD0	; 208
     2ec:	aa ed       	ldi	r26, 0xDA	; 218
     2ee:	45 ee       	ldi	r20, 0xE5	; 229
     2f0:	e1 ee       	ldi	r30, 0xE1	; 225
     2f2:	7e ef       	ldi	r23, 0xFE	; 254
     2f4:	1d f0       	brhs	.+6      	; 0x2fc <__trampolines_end+0x2a8>
     2f6:	bd f0       	brhs	.+46     	; 0x326 <cos_lookup+0x2>
     2f8:	5e f1       	brts	.+86     	; 0x350 <cos_lookup+0x2c>
     2fa:	01 f2       	breq	.-128    	; 0x27c <__trampolines_end+0x228>
     2fc:	a4 f2       	brlt	.-88     	; 0x2a6 <__trampolines_end+0x252>
     2fe:	49 f3       	breq	.-46     	; 0x2d2 <__trampolines_end+0x27e>
     300:	ee f3       	brts	.-6      	; 0x2fc <__trampolines_end+0x2a8>
     302:	95 f4       	brhc	.+36     	; 0x328 <cos_lookup+0x4>
     304:	3c f5       	brge	.+78     	; 0x354 <cos_lookup+0x30>
     306:	e4 f5       	brge	.+120    	; 0x380 <cos_lookup+0x5c>
     308:	8d f6       	brhc	.-94     	; 0x2ac <__trampolines_end+0x258>
     30a:	37 f7       	brid	.-52     	; 0x2d8 <__trampolines_end+0x284>
     30c:	e1 f7       	brne	.-8      	; 0x306 <__trampolines_end+0x2b2>
     30e:	8c f8       	.word	0xf88c	; ????
     310:	38 f9       	.word	0xf938	; ????
     312:	e4 f9       	bld	r30, 4
     314:	91 fa       	bst	r9, 1
     316:	3e fb       	.word	0xfb3e	; ????
     318:	eb fb       	.word	0xfbeb	; ????
     31a:	99 fc       	.word	0xfc99	; ????
     31c:	47 fd       	sbrc	r20, 7
     31e:	f5 fd       	sbrc	r31, 5
     320:	a4 fe       	sbrs	r10, 4
     322:	52 ff       	sbrs	r21, 2

00000324 <cos_lookup>:
     324:	10 27 0e 27 09 27 02 27 f7 26 e9 26 d9 26 c5 26     .'.'.'.'.&.&.&.&
     334:	ae 26 94 26 78 26 58 26 35 26 0f 26 e6 25 bb 25     .&.&x&X&5&.&.%.%
     344:	8c 25 5b 25 26 25 ef 24 b4 24 77 24 37 24 f5 23     .%[%&%.$.$w$7$.#
     354:	af 23 67 23 1b 23 ce 22 7d 22 2a 22 d4 21 7b 21     .#g#.#."}"*".!{!
     364:	20 21 c2 20 62 20 ff 1f 9a 1f 32 1f c8 1e 5b 1e      !. b ....2...[.
     374:	ec 1d 7b 1d 07 1d 91 1c 19 1c 9f 1b 22 1b a3 1a     ..{........."...
     384:	23 1a a0 19 1b 19 95 18 0c 18 82 17 f5 16 67 16     #.............g.
     394:	d7 15 46 15 b3 14 1e 14 88 13 f0 12 56 12 bb 11     ..F.........V...
     3a4:	1f 11 82 10 e3 0f 43 0f a2 0e ff 0d 5c 0d b7 0c     ......C.....\...
     3b4:	12 0c 6b 0b c4 0a 1c 0a 73 09 c9 08 1f 08 74 07     ..k.....s.....t.
     3c4:	c8 06 1c 06 6f 05 c2 04 15 04 67 03 b9 02 0b 02     ....o.....g.....
     3d4:	5c 01 ae 00 00 00 52 ff a4 fe f5 fd 47 fd 99 fc     \.....R.....G...
     3e4:	eb fb 3e fb 91 fa e4 f9 38 f9 8c f8 e1 f7 37 f7     ..>.....8.....7.
     3f4:	8d f6 e4 f5 3c f5 95 f4 ee f3 49 f3 a4 f2 01 f2     ....<.....I.....
     404:	5e f1 bd f0 1d f0 7e ef e1 ee 45 ee aa ed 10 ed     ^.....~...E.....
     414:	79 ec e2 eb 4d eb ba ea 29 ea 99 e9 0b e9 7e e8     y...M...).....~.
     424:	f4 e7 6b e7 e5 e6 60 e6 dd e5 5d e5 de e4 61 e4     ..k...`...]...a.
     434:	e7 e3 6f e3 f9 e2 85 e2 14 e2 a5 e1 38 e1 ce e0     ..o.........8...
     444:	66 e0 01 e0 9e df 3e df e0 de 85 de 2c de d6 dd     f.....>.....,...
     454:	83 dd 32 dd e5 dc 99 dc 51 dc 0b dc c9 db 89 db     ..2.....Q.......
     464:	4c db 11 db da da a5 da 74 da 45 da 1a da f1 d9     L.......t.E.....
     474:	cb d9 a8 d9 88 d9 6c d9 52 d9 3b d9 27 d9 17 d9     ......l.R.;.'...
     484:	09 d9 fe d8 f7 d8 f2 d8 f0 d8 f2 d8 f7 d8 fe d8     ................
     494:	09 d9 17 d9 27 d9 3b d9 52 d9 6c d9 88 d9 a8 d9     ....'.;.R.l.....
     4a4:	cb d9 f1 d9 1a da 45 da 74 da a5 da da da 11 db     ......E.t.......
     4b4:	4c db 89 db c9 db 0b dc 51 dc 99 dc e5 dc 32 dd     L.......Q.....2.
     4c4:	83 dd d6 dd 2c de 85 de e0 de 3e df 9e df 01 e0     ....,.....>.....
     4d4:	66 e0 ce e0 38 e1 a5 e1 14 e2 85 e2 f9 e2 6f e3     f...8.........o.
     4e4:	e7 e3 61 e4 de e4 5d e5 dd e5 60 e6 e5 e6 6b e7     ..a...]...`...k.
     4f4:	f4 e7 7e e8 0b e9 99 e9 29 ea ba ea 4d eb e2 eb     ..~.....)...M...
     504:	78 ec 10 ed aa ed 45 ee e1 ee 7e ef 1d f0 bd f0     x.....E...~.....
     514:	5e f1 01 f2 a4 f2 49 f3 ee f3 95 f4 3c f5 e4 f5     ^.....I.....<...
     524:	8d f6 37 f7 e1 f7 8c f8 38 f9 e4 f9 91 fa 3e fb     ..7.....8.....>.
     534:	eb fb 99 fc 47 fd f5 fd a4 fe 52 ff 00 00 ae 00     ....G.....R.....
     544:	5c 01 0b 02 b9 02 67 03 15 04 c2 04 6f 05 1c 06     \.....g.....o...
     554:	c8 06 74 07 1f 08 c9 08 73 09 1c 0a c4 0a 6b 0b     ..t.....s.....k.
     564:	12 0c b7 0c 5c 0d ff 0d a2 0e 43 0f e3 0f 82 10     ....\.....C.....
     574:	1f 11 bb 11 56 12 f0 12 88 13 1e 14 b3 14 46 15     ....V.........F.
     584:	d7 15 67 16 f5 16 82 17 0c 18 95 18 1b 19 a0 19     ..g.............
     594:	23 1a a3 1a 22 1b 9f 1b 19 1c 91 1c 07 1d 7b 1d     #...".........{.
     5a4:	ec 1d 5b 1e c8 1e 32 1f 9a 1f ff 1f 62 20 c2 20     ..[...2.....b . 
     5b4:	20 21 7b 21 d4 21 2a 22 7d 22 ce 22 1b 23 67 23      !{!.!*"}".".#g#
     5c4:	af 23 f5 23 37 24 77 24 b4 24 ef 24 26 25 5b 25     .#.#7$w$.$.$&%[%
     5d4:	8c 25 bb 25 e6 25 0f 26 35 26 58 26 78 26 94 26     .%.%.%.&5&X&x&.&
     5e4:	ae 26 c5 26 d9 26 e9 26 f7 26 02 27 09 27 0e 27     .&.&.&.&.&.'.'.'

000005f4 <__ctors_end>:
     5f4:	11 24       	eor	r1, r1
     5f6:	1f be       	out	0x3f, r1	; 63
     5f8:	cf e5       	ldi	r28, 0x5F	; 95
     5fa:	d8 e0       	ldi	r29, 0x08	; 8
     5fc:	de bf       	out	0x3e, r29	; 62
     5fe:	cd bf       	out	0x3d, r28	; 61

00000600 <__do_copy_data>:
     600:	12 e0       	ldi	r17, 0x02	; 2
     602:	a0 e6       	ldi	r26, 0x60	; 96
     604:	b0 e0       	ldi	r27, 0x00	; 0
     606:	ee ee       	ldi	r30, 0xEE	; 238
     608:	f5 e1       	ldi	r31, 0x15	; 21
     60a:	02 c0       	rjmp	.+4      	; 0x610 <__do_copy_data+0x10>
     60c:	05 90       	lpm	r0, Z+
     60e:	0d 92       	st	X+, r0
     610:	a0 37       	cpi	r26, 0x70	; 112
     612:	b1 07       	cpc	r27, r17
     614:	d9 f7       	brne	.-10     	; 0x60c <__do_copy_data+0xc>

00000616 <__do_clear_bss>:
     616:	23 e0       	ldi	r18, 0x03	; 3
     618:	a0 e7       	ldi	r26, 0x70	; 112
     61a:	b2 e0       	ldi	r27, 0x02	; 2
     61c:	01 c0       	rjmp	.+2      	; 0x620 <.do_clear_bss_start>

0000061e <.do_clear_bss_loop>:
     61e:	1d 92       	st	X+, r1

00000620 <.do_clear_bss_start>:
     620:	a1 3f       	cpi	r26, 0xF1	; 241
     622:	b2 07       	cpc	r27, r18
     624:	e1 f7       	brne	.-8      	; 0x61e <.do_clear_bss_loop>
     626:	0e 94 95 07 	call	0xf2a	; 0xf2a <main>
     62a:	0c 94 f5 0a 	jmp	0x15ea	; 0x15ea <_exit>

0000062e <__bad_interrupt>:
     62e:	0c 94 00 00 	jmp	0	; 0x0 <__vectors>

00000632 <pinChange>:
//	Lcd4_Clear();
				
	Lcd4_Set_Cursor(row,0);
	sprintf(lcdStringBuff,"%ld",x);
	Lcd4_Write_String(lcdStringBuff);
}
     632:	67 2b       	or	r22, r23
     634:	09 f0       	breq	.+2      	; 0x638 <pinChange+0x6>
     636:	9f c0       	rjmp	.+318    	; 0x776 <pinChange+0x144>
     638:	00 97       	sbiw	r24, 0x00	; 0
     63a:	11 f4       	brne	.+4      	; 0x640 <pinChange+0xe>
     63c:	d8 98       	cbi	0x1b, 0	; 27
     63e:	08 95       	ret
     640:	81 30       	cpi	r24, 0x01	; 1
     642:	91 05       	cpc	r25, r1
     644:	11 f4       	brne	.+4      	; 0x64a <pinChange+0x18>
     646:	d9 98       	cbi	0x1b, 1	; 27
     648:	08 95       	ret
     64a:	82 30       	cpi	r24, 0x02	; 2
     64c:	91 05       	cpc	r25, r1
     64e:	11 f4       	brne	.+4      	; 0x654 <pinChange+0x22>
     650:	da 98       	cbi	0x1b, 2	; 27
     652:	08 95       	ret
     654:	83 30       	cpi	r24, 0x03	; 3
     656:	91 05       	cpc	r25, r1
     658:	11 f4       	brne	.+4      	; 0x65e <pinChange+0x2c>
     65a:	db 98       	cbi	0x1b, 3	; 27
     65c:	08 95       	ret
     65e:	84 30       	cpi	r24, 0x04	; 4
     660:	91 05       	cpc	r25, r1
     662:	11 f4       	brne	.+4      	; 0x668 <pinChange+0x36>
     664:	dc 98       	cbi	0x1b, 4	; 27
     666:	08 95       	ret
     668:	85 30       	cpi	r24, 0x05	; 5
     66a:	91 05       	cpc	r25, r1
     66c:	11 f4       	brne	.+4      	; 0x672 <pinChange+0x40>
     66e:	dd 98       	cbi	0x1b, 5	; 27
     670:	08 95       	ret
     672:	86 30       	cpi	r24, 0x06	; 6
     674:	91 05       	cpc	r25, r1
     676:	11 f4       	brne	.+4      	; 0x67c <pinChange+0x4a>
     678:	de 98       	cbi	0x1b, 6	; 27
     67a:	08 95       	ret
     67c:	87 30       	cpi	r24, 0x07	; 7
     67e:	91 05       	cpc	r25, r1
     680:	11 f4       	brne	.+4      	; 0x686 <pinChange+0x54>
     682:	df 98       	cbi	0x1b, 7	; 27
     684:	08 95       	ret
     686:	8a 30       	cpi	r24, 0x0A	; 10
     688:	91 05       	cpc	r25, r1
     68a:	11 f4       	brne	.+4      	; 0x690 <pinChange+0x5e>
     68c:	c0 98       	cbi	0x18, 0	; 24
     68e:	08 95       	ret
     690:	8b 30       	cpi	r24, 0x0B	; 11
     692:	91 05       	cpc	r25, r1
     694:	11 f4       	brne	.+4      	; 0x69a <pinChange+0x68>
     696:	c1 98       	cbi	0x18, 1	; 24
     698:	08 95       	ret
     69a:	8c 30       	cpi	r24, 0x0C	; 12
     69c:	91 05       	cpc	r25, r1
     69e:	11 f4       	brne	.+4      	; 0x6a4 <pinChange+0x72>
     6a0:	c2 98       	cbi	0x18, 2	; 24
     6a2:	08 95       	ret
     6a4:	8d 30       	cpi	r24, 0x0D	; 13
     6a6:	91 05       	cpc	r25, r1
     6a8:	11 f4       	brne	.+4      	; 0x6ae <pinChange+0x7c>
     6aa:	c3 98       	cbi	0x18, 3	; 24
     6ac:	08 95       	ret
     6ae:	8e 30       	cpi	r24, 0x0E	; 14
     6b0:	91 05       	cpc	r25, r1
     6b2:	11 f4       	brne	.+4      	; 0x6b8 <pinChange+0x86>
     6b4:	c4 98       	cbi	0x18, 4	; 24
     6b6:	08 95       	ret
     6b8:	8f 30       	cpi	r24, 0x0F	; 15
     6ba:	91 05       	cpc	r25, r1
     6bc:	11 f4       	brne	.+4      	; 0x6c2 <pinChange+0x90>
     6be:	c5 98       	cbi	0x18, 5	; 24
     6c0:	08 95       	ret
     6c2:	80 31       	cpi	r24, 0x10	; 16
     6c4:	91 05       	cpc	r25, r1
     6c6:	11 f4       	brne	.+4      	; 0x6cc <pinChange+0x9a>
     6c8:	c6 98       	cbi	0x18, 6	; 24
     6ca:	08 95       	ret
     6cc:	81 31       	cpi	r24, 0x11	; 17
     6ce:	91 05       	cpc	r25, r1
     6d0:	11 f4       	brne	.+4      	; 0x6d6 <pinChange+0xa4>
     6d2:	c7 98       	cbi	0x18, 7	; 24
     6d4:	08 95       	ret
     6d6:	84 31       	cpi	r24, 0x14	; 20
     6d8:	91 05       	cpc	r25, r1
     6da:	11 f4       	brne	.+4      	; 0x6e0 <pinChange+0xae>
     6dc:	a8 98       	cbi	0x15, 0	; 21
     6de:	08 95       	ret
     6e0:	85 31       	cpi	r24, 0x15	; 21
     6e2:	91 05       	cpc	r25, r1
     6e4:	11 f4       	brne	.+4      	; 0x6ea <pinChange+0xb8>
     6e6:	a9 98       	cbi	0x15, 1	; 21
     6e8:	08 95       	ret
     6ea:	86 31       	cpi	r24, 0x16	; 22
     6ec:	91 05       	cpc	r25, r1
     6ee:	11 f4       	brne	.+4      	; 0x6f4 <pinChange+0xc2>
     6f0:	aa 98       	cbi	0x15, 2	; 21
     6f2:	08 95       	ret
     6f4:	87 31       	cpi	r24, 0x17	; 23
     6f6:	91 05       	cpc	r25, r1
     6f8:	11 f4       	brne	.+4      	; 0x6fe <pinChange+0xcc>
     6fa:	ab 98       	cbi	0x15, 3	; 21
     6fc:	08 95       	ret
     6fe:	88 31       	cpi	r24, 0x18	; 24
     700:	91 05       	cpc	r25, r1
     702:	11 f4       	brne	.+4      	; 0x708 <pinChange+0xd6>
     704:	ac 98       	cbi	0x15, 4	; 21
     706:	08 95       	ret
     708:	89 31       	cpi	r24, 0x19	; 25
     70a:	91 05       	cpc	r25, r1
     70c:	11 f4       	brne	.+4      	; 0x712 <pinChange+0xe0>
     70e:	ad 98       	cbi	0x15, 5	; 21
     710:	08 95       	ret
     712:	8a 31       	cpi	r24, 0x1A	; 26
     714:	91 05       	cpc	r25, r1
     716:	11 f4       	brne	.+4      	; 0x71c <pinChange+0xea>
     718:	ae 98       	cbi	0x15, 6	; 21
     71a:	08 95       	ret
     71c:	8b 31       	cpi	r24, 0x1B	; 27
     71e:	91 05       	cpc	r25, r1
     720:	11 f4       	brne	.+4      	; 0x726 <pinChange+0xf4>
     722:	af 98       	cbi	0x15, 7	; 21
     724:	08 95       	ret
     726:	8e 31       	cpi	r24, 0x1E	; 30
     728:	91 05       	cpc	r25, r1
     72a:	11 f4       	brne	.+4      	; 0x730 <pinChange+0xfe>
     72c:	90 98       	cbi	0x12, 0	; 18
     72e:	08 95       	ret
     730:	8f 31       	cpi	r24, 0x1F	; 31
     732:	91 05       	cpc	r25, r1
     734:	11 f4       	brne	.+4      	; 0x73a <pinChange+0x108>
     736:	91 98       	cbi	0x12, 1	; 18
     738:	08 95       	ret
     73a:	80 32       	cpi	r24, 0x20	; 32
     73c:	91 05       	cpc	r25, r1
     73e:	11 f4       	brne	.+4      	; 0x744 <pinChange+0x112>
     740:	92 98       	cbi	0x12, 2	; 18
     742:	08 95       	ret
     744:	81 32       	cpi	r24, 0x21	; 33
     746:	91 05       	cpc	r25, r1
     748:	11 f4       	brne	.+4      	; 0x74e <pinChange+0x11c>
     74a:	93 98       	cbi	0x12, 3	; 18
     74c:	08 95       	ret
     74e:	82 32       	cpi	r24, 0x22	; 34
     750:	91 05       	cpc	r25, r1
     752:	11 f4       	brne	.+4      	; 0x758 <pinChange+0x126>
     754:	94 98       	cbi	0x12, 4	; 18
     756:	08 95       	ret
     758:	83 32       	cpi	r24, 0x23	; 35
     75a:	91 05       	cpc	r25, r1
     75c:	11 f4       	brne	.+4      	; 0x762 <pinChange+0x130>
     75e:	95 98       	cbi	0x12, 5	; 18
     760:	08 95       	ret
     762:	84 32       	cpi	r24, 0x24	; 36
     764:	91 05       	cpc	r25, r1
     766:	11 f4       	brne	.+4      	; 0x76c <pinChange+0x13a>
     768:	96 98       	cbi	0x12, 6	; 18
     76a:	08 95       	ret
     76c:	85 97       	sbiw	r24, 0x25	; 37
     76e:	09 f0       	breq	.+2      	; 0x772 <pinChange+0x140>
     770:	9f c0       	rjmp	.+318    	; 0x8b0 <__stack+0x51>
     772:	97 98       	cbi	0x12, 7	; 18
     774:	08 95       	ret
     776:	00 97       	sbiw	r24, 0x00	; 0
     778:	11 f4       	brne	.+4      	; 0x77e <pinChange+0x14c>
     77a:	d8 9a       	sbi	0x1b, 0	; 27
     77c:	08 95       	ret
     77e:	81 30       	cpi	r24, 0x01	; 1
     780:	91 05       	cpc	r25, r1
     782:	11 f4       	brne	.+4      	; 0x788 <pinChange+0x156>
     784:	d9 9a       	sbi	0x1b, 1	; 27
     786:	08 95       	ret
     788:	82 30       	cpi	r24, 0x02	; 2
     78a:	91 05       	cpc	r25, r1
     78c:	11 f4       	brne	.+4      	; 0x792 <pinChange+0x160>
     78e:	da 9a       	sbi	0x1b, 2	; 27
     790:	08 95       	ret
     792:	83 30       	cpi	r24, 0x03	; 3
     794:	91 05       	cpc	r25, r1
     796:	11 f4       	brne	.+4      	; 0x79c <pinChange+0x16a>
     798:	db 9a       	sbi	0x1b, 3	; 27
     79a:	08 95       	ret
     79c:	84 30       	cpi	r24, 0x04	; 4
     79e:	91 05       	cpc	r25, r1
     7a0:	11 f4       	brne	.+4      	; 0x7a6 <pinChange+0x174>
     7a2:	dc 9a       	sbi	0x1b, 4	; 27
     7a4:	08 95       	ret
     7a6:	85 30       	cpi	r24, 0x05	; 5
     7a8:	91 05       	cpc	r25, r1
     7aa:	11 f4       	brne	.+4      	; 0x7b0 <pinChange+0x17e>
     7ac:	dd 9a       	sbi	0x1b, 5	; 27
     7ae:	08 95       	ret
     7b0:	86 30       	cpi	r24, 0x06	; 6
     7b2:	91 05       	cpc	r25, r1
     7b4:	11 f4       	brne	.+4      	; 0x7ba <pinChange+0x188>
     7b6:	de 9a       	sbi	0x1b, 6	; 27
     7b8:	08 95       	ret
     7ba:	87 30       	cpi	r24, 0x07	; 7
     7bc:	91 05       	cpc	r25, r1
     7be:	11 f4       	brne	.+4      	; 0x7c4 <pinChange+0x192>
     7c0:	df 9a       	sbi	0x1b, 7	; 27
     7c2:	08 95       	ret
     7c4:	8a 30       	cpi	r24, 0x0A	; 10
     7c6:	91 05       	cpc	r25, r1
     7c8:	11 f4       	brne	.+4      	; 0x7ce <pinChange+0x19c>
     7ca:	c0 9a       	sbi	0x18, 0	; 24
     7cc:	08 95       	ret
     7ce:	8b 30       	cpi	r24, 0x0B	; 11
     7d0:	91 05       	cpc	r25, r1
     7d2:	11 f4       	brne	.+4      	; 0x7d8 <pinChange+0x1a6>
     7d4:	c1 9a       	sbi	0x18, 1	; 24
     7d6:	08 95       	ret
     7d8:	8c 30       	cpi	r24, 0x0C	; 12
     7da:	91 05       	cpc	r25, r1
     7dc:	11 f4       	brne	.+4      	; 0x7e2 <pinChange+0x1b0>
     7de:	c2 9a       	sbi	0x18, 2	; 24
     7e0:	08 95       	ret
     7e2:	8d 30       	cpi	r24, 0x0D	; 13
     7e4:	91 05       	cpc	r25, r1
     7e6:	11 f4       	brne	.+4      	; 0x7ec <pinChange+0x1ba>
     7e8:	c3 9a       	sbi	0x18, 3	; 24
     7ea:	08 95       	ret
     7ec:	8e 30       	cpi	r24, 0x0E	; 14
     7ee:	91 05       	cpc	r25, r1
     7f0:	11 f4       	brne	.+4      	; 0x7f6 <pinChange+0x1c4>
     7f2:	c4 9a       	sbi	0x18, 4	; 24
     7f4:	08 95       	ret
     7f6:	8f 30       	cpi	r24, 0x0F	; 15
     7f8:	91 05       	cpc	r25, r1
     7fa:	11 f4       	brne	.+4      	; 0x800 <pinChange+0x1ce>
     7fc:	c5 9a       	sbi	0x18, 5	; 24
     7fe:	08 95       	ret
     800:	80 31       	cpi	r24, 0x10	; 16
     802:	91 05       	cpc	r25, r1
     804:	11 f4       	brne	.+4      	; 0x80a <pinChange+0x1d8>
     806:	c6 9a       	sbi	0x18, 6	; 24
     808:	08 95       	ret
     80a:	81 31       	cpi	r24, 0x11	; 17
     80c:	91 05       	cpc	r25, r1
     80e:	11 f4       	brne	.+4      	; 0x814 <pinChange+0x1e2>
     810:	c7 9a       	sbi	0x18, 7	; 24
     812:	08 95       	ret
     814:	84 31       	cpi	r24, 0x14	; 20
     816:	91 05       	cpc	r25, r1
     818:	11 f4       	brne	.+4      	; 0x81e <pinChange+0x1ec>
     81a:	a8 9a       	sbi	0x15, 0	; 21
     81c:	08 95       	ret
     81e:	85 31       	cpi	r24, 0x15	; 21
     820:	91 05       	cpc	r25, r1
     822:	11 f4       	brne	.+4      	; 0x828 <pinChange+0x1f6>
     824:	a9 9a       	sbi	0x15, 1	; 21
     826:	08 95       	ret
     828:	86 31       	cpi	r24, 0x16	; 22
     82a:	91 05       	cpc	r25, r1
     82c:	11 f4       	brne	.+4      	; 0x832 <pinChange+0x200>
     82e:	aa 9a       	sbi	0x15, 2	; 21
     830:	08 95       	ret
     832:	87 31       	cpi	r24, 0x17	; 23
     834:	91 05       	cpc	r25, r1
     836:	11 f4       	brne	.+4      	; 0x83c <pinChange+0x20a>
     838:	ab 9a       	sbi	0x15, 3	; 21
     83a:	08 95       	ret
     83c:	88 31       	cpi	r24, 0x18	; 24
     83e:	91 05       	cpc	r25, r1
     840:	11 f4       	brne	.+4      	; 0x846 <pinChange+0x214>
     842:	ac 9a       	sbi	0x15, 4	; 21
     844:	08 95       	ret
     846:	89 31       	cpi	r24, 0x19	; 25
     848:	91 05       	cpc	r25, r1
     84a:	11 f4       	brne	.+4      	; 0x850 <pinChange+0x21e>
     84c:	ad 9a       	sbi	0x15, 5	; 21
     84e:	08 95       	ret
     850:	8a 31       	cpi	r24, 0x1A	; 26
     852:	91 05       	cpc	r25, r1
     854:	11 f4       	brne	.+4      	; 0x85a <pinChange+0x228>
     856:	ae 9a       	sbi	0x15, 6	; 21
     858:	08 95       	ret
     85a:	8b 31       	cpi	r24, 0x1B	; 27
     85c:	91 05       	cpc	r25, r1
     85e:	11 f4       	brne	.+4      	; 0x864 <__stack+0x5>
     860:	af 9a       	sbi	0x15, 7	; 21
     862:	08 95       	ret
     864:	8e 31       	cpi	r24, 0x1E	; 30
     866:	91 05       	cpc	r25, r1
     868:	11 f4       	brne	.+4      	; 0x86e <__stack+0xf>
     86a:	90 9a       	sbi	0x12, 0	; 18
     86c:	08 95       	ret
     86e:	8f 31       	cpi	r24, 0x1F	; 31
     870:	91 05       	cpc	r25, r1
     872:	11 f4       	brne	.+4      	; 0x878 <__stack+0x19>
     874:	91 9a       	sbi	0x12, 1	; 18
     876:	08 95       	ret
     878:	80 32       	cpi	r24, 0x20	; 32
     87a:	91 05       	cpc	r25, r1
     87c:	11 f4       	brne	.+4      	; 0x882 <__stack+0x23>
     87e:	92 9a       	sbi	0x12, 2	; 18
     880:	08 95       	ret
     882:	81 32       	cpi	r24, 0x21	; 33
     884:	91 05       	cpc	r25, r1
     886:	11 f4       	brne	.+4      	; 0x88c <__stack+0x2d>
     888:	93 9a       	sbi	0x12, 3	; 18
     88a:	08 95       	ret
     88c:	82 32       	cpi	r24, 0x22	; 34
     88e:	91 05       	cpc	r25, r1
     890:	11 f4       	brne	.+4      	; 0x896 <__stack+0x37>
     892:	94 9a       	sbi	0x12, 4	; 18
     894:	08 95       	ret
     896:	83 32       	cpi	r24, 0x23	; 35
     898:	91 05       	cpc	r25, r1
     89a:	11 f4       	brne	.+4      	; 0x8a0 <__stack+0x41>
     89c:	95 9a       	sbi	0x12, 5	; 18
     89e:	08 95       	ret
     8a0:	84 32       	cpi	r24, 0x24	; 36
     8a2:	91 05       	cpc	r25, r1
     8a4:	11 f4       	brne	.+4      	; 0x8aa <__stack+0x4b>
     8a6:	96 9a       	sbi	0x12, 6	; 18
     8a8:	08 95       	ret
     8aa:	85 97       	sbiw	r24, 0x25	; 37
     8ac:	09 f4       	brne	.+2      	; 0x8b0 <__stack+0x51>
     8ae:	97 9a       	sbi	0x12, 7	; 18
     8b0:	08 95       	ret

000008b2 <Lcd4_Port>:
     8b2:	cf 93       	push	r28
     8b4:	c8 2f       	mov	r28, r24
     8b6:	80 ff       	sbrs	r24, 0
     8b8:	07 c0       	rjmp	.+14     	; 0x8c8 <Lcd4_Port+0x16>
     8ba:	61 e0       	ldi	r22, 0x01	; 1
     8bc:	70 e0       	ldi	r23, 0x00	; 0
     8be:	82 e2       	ldi	r24, 0x22	; 34
     8c0:	90 e0       	ldi	r25, 0x00	; 0
     8c2:	0e 94 19 03 	call	0x632	; 0x632 <pinChange>
     8c6:	06 c0       	rjmp	.+12     	; 0x8d4 <Lcd4_Port+0x22>
     8c8:	60 e0       	ldi	r22, 0x00	; 0
     8ca:	70 e0       	ldi	r23, 0x00	; 0
     8cc:	82 e2       	ldi	r24, 0x22	; 34
     8ce:	90 e0       	ldi	r25, 0x00	; 0
     8d0:	0e 94 19 03 	call	0x632	; 0x632 <pinChange>
     8d4:	c1 ff       	sbrs	r28, 1
     8d6:	07 c0       	rjmp	.+14     	; 0x8e6 <Lcd4_Port+0x34>
     8d8:	61 e0       	ldi	r22, 0x01	; 1
     8da:	70 e0       	ldi	r23, 0x00	; 0
     8dc:	83 e2       	ldi	r24, 0x23	; 35
     8de:	90 e0       	ldi	r25, 0x00	; 0
     8e0:	0e 94 19 03 	call	0x632	; 0x632 <pinChange>
     8e4:	06 c0       	rjmp	.+12     	; 0x8f2 <Lcd4_Port+0x40>
     8e6:	60 e0       	ldi	r22, 0x00	; 0
     8e8:	70 e0       	ldi	r23, 0x00	; 0
     8ea:	83 e2       	ldi	r24, 0x23	; 35
     8ec:	90 e0       	ldi	r25, 0x00	; 0
     8ee:	0e 94 19 03 	call	0x632	; 0x632 <pinChange>
     8f2:	c2 ff       	sbrs	r28, 2
     8f4:	07 c0       	rjmp	.+14     	; 0x904 <Lcd4_Port+0x52>
     8f6:	61 e0       	ldi	r22, 0x01	; 1
     8f8:	70 e0       	ldi	r23, 0x00	; 0
     8fa:	84 e2       	ldi	r24, 0x24	; 36
     8fc:	90 e0       	ldi	r25, 0x00	; 0
     8fe:	0e 94 19 03 	call	0x632	; 0x632 <pinChange>
     902:	06 c0       	rjmp	.+12     	; 0x910 <Lcd4_Port+0x5e>
     904:	60 e0       	ldi	r22, 0x00	; 0
     906:	70 e0       	ldi	r23, 0x00	; 0
     908:	84 e2       	ldi	r24, 0x24	; 36
     90a:	90 e0       	ldi	r25, 0x00	; 0
     90c:	0e 94 19 03 	call	0x632	; 0x632 <pinChange>
     910:	c3 ff       	sbrs	r28, 3
     912:	07 c0       	rjmp	.+14     	; 0x922 <Lcd4_Port+0x70>
     914:	61 e0       	ldi	r22, 0x01	; 1
     916:	70 e0       	ldi	r23, 0x00	; 0
     918:	85 e2       	ldi	r24, 0x25	; 37
     91a:	90 e0       	ldi	r25, 0x00	; 0
     91c:	0e 94 19 03 	call	0x632	; 0x632 <pinChange>
     920:	06 c0       	rjmp	.+12     	; 0x92e <Lcd4_Port+0x7c>
     922:	60 e0       	ldi	r22, 0x00	; 0
     924:	70 e0       	ldi	r23, 0x00	; 0
     926:	85 e2       	ldi	r24, 0x25	; 37
     928:	90 e0       	ldi	r25, 0x00	; 0
     92a:	0e 94 19 03 	call	0x632	; 0x632 <pinChange>
     92e:	cf 91       	pop	r28
     930:	08 95       	ret

00000932 <Lcd4_Cmd>:
     932:	cf 93       	push	r28
     934:	c8 2f       	mov	r28, r24
     936:	60 e0       	ldi	r22, 0x00	; 0
     938:	70 e0       	ldi	r23, 0x00	; 0
     93a:	8a e1       	ldi	r24, 0x1A	; 26
     93c:	90 e0       	ldi	r25, 0x00	; 0
     93e:	0e 94 19 03 	call	0x632	; 0x632 <pinChange>
     942:	8c 2f       	mov	r24, r28
     944:	0e 94 59 04 	call	0x8b2	; 0x8b2 <Lcd4_Port>
     948:	61 e0       	ldi	r22, 0x01	; 1
     94a:	70 e0       	ldi	r23, 0x00	; 0
     94c:	8b e1       	ldi	r24, 0x1B	; 27
     94e:	90 e0       	ldi	r25, 0x00	; 0
     950:	0e 94 19 03 	call	0x632	; 0x632 <pinChange>
     954:	89 ef       	ldi	r24, 0xF9	; 249
     956:	90 e0       	ldi	r25, 0x00	; 0
     958:	01 97       	sbiw	r24, 0x01	; 1
     95a:	f1 f7       	brne	.-4      	; 0x958 <Lcd4_Cmd+0x26>
     95c:	00 c0       	rjmp	.+0      	; 0x95e <Lcd4_Cmd+0x2c>
     95e:	00 00       	nop
     960:	60 e0       	ldi	r22, 0x00	; 0
     962:	70 e0       	ldi	r23, 0x00	; 0
     964:	8b e1       	ldi	r24, 0x1B	; 27
     966:	90 e0       	ldi	r25, 0x00	; 0
     968:	0e 94 19 03 	call	0x632	; 0x632 <pinChange>
     96c:	89 ef       	ldi	r24, 0xF9	; 249
     96e:	90 e0       	ldi	r25, 0x00	; 0
     970:	01 97       	sbiw	r24, 0x01	; 1
     972:	f1 f7       	brne	.-4      	; 0x970 <Lcd4_Cmd+0x3e>
     974:	00 c0       	rjmp	.+0      	; 0x976 <Lcd4_Cmd+0x44>
     976:	00 00       	nop
     978:	cf 91       	pop	r28
     97a:	08 95       	ret

0000097c <Lcd4_Clear>:
     97c:	80 e0       	ldi	r24, 0x00	; 0
     97e:	0e 94 99 04 	call	0x932	; 0x932 <Lcd4_Cmd>
     982:	81 e0       	ldi	r24, 0x01	; 1
     984:	0e 94 99 04 	call	0x932	; 0x932 <Lcd4_Cmd>
     988:	08 95       	ret

0000098a <Lcd4_Set_Cursor>:
     98a:	cf 93       	push	r28
     98c:	c6 2f       	mov	r28, r22
     98e:	81 30       	cpi	r24, 0x01	; 1
     990:	59 f4       	brne	.+22     	; 0x9a8 <Lcd4_Set_Cursor+0x1e>
     992:	80 e8       	ldi	r24, 0x80	; 128
     994:	86 0f       	add	r24, r22
     996:	82 95       	swap	r24
     998:	8f 70       	andi	r24, 0x0F	; 15
     99a:	0e 94 99 04 	call	0x932	; 0x932 <Lcd4_Cmd>
     99e:	8c 2f       	mov	r24, r28
     9a0:	8f 70       	andi	r24, 0x0F	; 15
     9a2:	0e 94 99 04 	call	0x932	; 0x932 <Lcd4_Cmd>
     9a6:	0c c0       	rjmp	.+24     	; 0x9c0 <Lcd4_Set_Cursor+0x36>
     9a8:	82 30       	cpi	r24, 0x02	; 2
     9aa:	51 f4       	brne	.+20     	; 0x9c0 <Lcd4_Set_Cursor+0x36>
     9ac:	80 ec       	ldi	r24, 0xC0	; 192
     9ae:	86 0f       	add	r24, r22
     9b0:	82 95       	swap	r24
     9b2:	8f 70       	andi	r24, 0x0F	; 15
     9b4:	0e 94 99 04 	call	0x932	; 0x932 <Lcd4_Cmd>
     9b8:	8c 2f       	mov	r24, r28
     9ba:	8f 70       	andi	r24, 0x0F	; 15
     9bc:	0e 94 99 04 	call	0x932	; 0x932 <Lcd4_Cmd>
     9c0:	cf 91       	pop	r28
     9c2:	08 95       	ret

000009c4 <Lcd4_Init>:
     9c4:	80 e0       	ldi	r24, 0x00	; 0
     9c6:	0e 94 59 04 	call	0x8b2	; 0x8b2 <Lcd4_Port>
     9ca:	87 e8       	ldi	r24, 0x87	; 135
     9cc:	93 e1       	ldi	r25, 0x13	; 19
     9ce:	01 97       	sbiw	r24, 0x01	; 1
     9d0:	f1 f7       	brne	.-4      	; 0x9ce <Lcd4_Init+0xa>
     9d2:	00 c0       	rjmp	.+0      	; 0x9d4 <Lcd4_Init+0x10>
     9d4:	00 00       	nop
     9d6:	83 e0       	ldi	r24, 0x03	; 3
     9d8:	0e 94 99 04 	call	0x932	; 0x932 <Lcd4_Cmd>
     9dc:	81 ee       	ldi	r24, 0xE1	; 225
     9de:	94 e0       	ldi	r25, 0x04	; 4
     9e0:	01 97       	sbiw	r24, 0x01	; 1
     9e2:	f1 f7       	brne	.-4      	; 0x9e0 <Lcd4_Init+0x1c>
     9e4:	00 c0       	rjmp	.+0      	; 0x9e6 <Lcd4_Init+0x22>
     9e6:	00 00       	nop
     9e8:	83 e0       	ldi	r24, 0x03	; 3
     9ea:	0e 94 99 04 	call	0x932	; 0x932 <Lcd4_Cmd>
     9ee:	8d eb       	ldi	r24, 0xBD	; 189
     9f0:	9a e0       	ldi	r25, 0x0A	; 10
     9f2:	01 97       	sbiw	r24, 0x01	; 1
     9f4:	f1 f7       	brne	.-4      	; 0x9f2 <Lcd4_Init+0x2e>
     9f6:	00 c0       	rjmp	.+0      	; 0x9f8 <Lcd4_Init+0x34>
     9f8:	00 00       	nop
     9fa:	83 e0       	ldi	r24, 0x03	; 3
     9fc:	0e 94 99 04 	call	0x932	; 0x932 <Lcd4_Cmd>
     a00:	82 e0       	ldi	r24, 0x02	; 2
     a02:	0e 94 99 04 	call	0x932	; 0x932 <Lcd4_Cmd>
     a06:	82 e0       	ldi	r24, 0x02	; 2
     a08:	0e 94 99 04 	call	0x932	; 0x932 <Lcd4_Cmd>
     a0c:	88 e0       	ldi	r24, 0x08	; 8
     a0e:	0e 94 99 04 	call	0x932	; 0x932 <Lcd4_Cmd>
     a12:	80 e0       	ldi	r24, 0x00	; 0
     a14:	0e 94 99 04 	call	0x932	; 0x932 <Lcd4_Cmd>
     a18:	8c e0       	ldi	r24, 0x0C	; 12
     a1a:	0e 94 99 04 	call	0x932	; 0x932 <Lcd4_Cmd>
     a1e:	80 e0       	ldi	r24, 0x00	; 0
     a20:	0e 94 99 04 	call	0x932	; 0x932 <Lcd4_Cmd>
     a24:	86 e0       	ldi	r24, 0x06	; 6
     a26:	0e 94 99 04 	call	0x932	; 0x932 <Lcd4_Cmd>
     a2a:	08 95       	ret

00000a2c <Lcd4_Write_Char>:
     a2c:	cf 93       	push	r28
     a2e:	c8 2f       	mov	r28, r24
     a30:	61 e0       	ldi	r22, 0x01	; 1
     a32:	70 e0       	ldi	r23, 0x00	; 0
     a34:	8a e1       	ldi	r24, 0x1A	; 26
     a36:	90 e0       	ldi	r25, 0x00	; 0
     a38:	0e 94 19 03 	call	0x632	; 0x632 <pinChange>
     a3c:	8c 2f       	mov	r24, r28
     a3e:	82 95       	swap	r24
     a40:	8f 70       	andi	r24, 0x0F	; 15
     a42:	0e 94 59 04 	call	0x8b2	; 0x8b2 <Lcd4_Port>
     a46:	61 e0       	ldi	r22, 0x01	; 1
     a48:	70 e0       	ldi	r23, 0x00	; 0
     a4a:	8b e1       	ldi	r24, 0x1B	; 27
     a4c:	90 e0       	ldi	r25, 0x00	; 0
     a4e:	0e 94 19 03 	call	0x632	; 0x632 <pinChange>
     a52:	89 ef       	ldi	r24, 0xF9	; 249
     a54:	90 e0       	ldi	r25, 0x00	; 0
     a56:	01 97       	sbiw	r24, 0x01	; 1
     a58:	f1 f7       	brne	.-4      	; 0xa56 <Lcd4_Write_Char+0x2a>
     a5a:	00 c0       	rjmp	.+0      	; 0xa5c <Lcd4_Write_Char+0x30>
     a5c:	00 00       	nop
     a5e:	60 e0       	ldi	r22, 0x00	; 0
     a60:	70 e0       	ldi	r23, 0x00	; 0
     a62:	8b e1       	ldi	r24, 0x1B	; 27
     a64:	90 e0       	ldi	r25, 0x00	; 0
     a66:	0e 94 19 03 	call	0x632	; 0x632 <pinChange>
     a6a:	89 ef       	ldi	r24, 0xF9	; 249
     a6c:	90 e0       	ldi	r25, 0x00	; 0
     a6e:	01 97       	sbiw	r24, 0x01	; 1
     a70:	f1 f7       	brne	.-4      	; 0xa6e <Lcd4_Write_Char+0x42>
     a72:	00 c0       	rjmp	.+0      	; 0xa74 <Lcd4_Write_Char+0x48>
     a74:	00 00       	nop
     a76:	8c 2f       	mov	r24, r28
     a78:	8f 70       	andi	r24, 0x0F	; 15
     a7a:	0e 94 59 04 	call	0x8b2	; 0x8b2 <Lcd4_Port>
     a7e:	61 e0       	ldi	r22, 0x01	; 1
     a80:	70 e0       	ldi	r23, 0x00	; 0
     a82:	8b e1       	ldi	r24, 0x1B	; 27
     a84:	90 e0       	ldi	r25, 0x00	; 0
     a86:	0e 94 19 03 	call	0x632	; 0x632 <pinChange>
     a8a:	89 ef       	ldi	r24, 0xF9	; 249
     a8c:	90 e0       	ldi	r25, 0x00	; 0
     a8e:	01 97       	sbiw	r24, 0x01	; 1
     a90:	f1 f7       	brne	.-4      	; 0xa8e <Lcd4_Write_Char+0x62>
     a92:	00 c0       	rjmp	.+0      	; 0xa94 <Lcd4_Write_Char+0x68>
     a94:	00 00       	nop
     a96:	60 e0       	ldi	r22, 0x00	; 0
     a98:	70 e0       	ldi	r23, 0x00	; 0
     a9a:	8b e1       	ldi	r24, 0x1B	; 27
     a9c:	90 e0       	ldi	r25, 0x00	; 0
     a9e:	0e 94 19 03 	call	0x632	; 0x632 <pinChange>
     aa2:	89 ef       	ldi	r24, 0xF9	; 249
     aa4:	90 e0       	ldi	r25, 0x00	; 0
     aa6:	01 97       	sbiw	r24, 0x01	; 1
     aa8:	f1 f7       	brne	.-4      	; 0xaa6 <Lcd4_Write_Char+0x7a>
     aaa:	00 c0       	rjmp	.+0      	; 0xaac <Lcd4_Write_Char+0x80>
     aac:	00 00       	nop
     aae:	cf 91       	pop	r28
     ab0:	08 95       	ret

00000ab2 <Lcd4_Write_String>:
     ab2:	cf 93       	push	r28
     ab4:	df 93       	push	r29
     ab6:	ec 01       	movw	r28, r24
     ab8:	88 81       	ld	r24, Y
     aba:	88 23       	and	r24, r24
     abc:	31 f0       	breq	.+12     	; 0xaca <Lcd4_Write_String+0x18>
     abe:	21 96       	adiw	r28, 0x01	; 1
     ac0:	0e 94 16 05 	call	0xa2c	; 0xa2c <Lcd4_Write_Char>
     ac4:	89 91       	ld	r24, Y+
     ac6:	81 11       	cpse	r24, r1
     ac8:	fb cf       	rjmp	.-10     	; 0xac0 <Lcd4_Write_String+0xe>
     aca:	df 91       	pop	r29
     acc:	cf 91       	pop	r28
     ace:	08 95       	ret

00000ad0 <DFT>:
int16_t analogTimeBuff[N_SAMPLE_POINTS];
int32_t Pc[N_SAMPLE_POINTS/2][2];
int32_t P[N_SAMPLE_POINTS];
// mapped to int
void DFT()
{
     ad0:	2f 92       	push	r2
     ad2:	3f 92       	push	r3
     ad4:	4f 92       	push	r4
     ad6:	5f 92       	push	r5
     ad8:	6f 92       	push	r6
     ada:	7f 92       	push	r7
     adc:	8f 92       	push	r8
     ade:	9f 92       	push	r9
     ae0:	af 92       	push	r10
     ae2:	bf 92       	push	r11
     ae4:	cf 92       	push	r12
     ae6:	df 92       	push	r13
     ae8:	ef 92       	push	r14
     aea:	ff 92       	push	r15
     aec:	0f 93       	push	r16
     aee:	1f 93       	push	r17
     af0:	cf 93       	push	r28
     af2:	df 93       	push	r29
     af4:	cd b7       	in	r28, 0x3d	; 61
     af6:	de b7       	in	r29, 0x3e	; 62
     af8:	27 97       	sbiw	r28, 0x07	; 7
     afa:	0f b6       	in	r0, 0x3f	; 63
     afc:	f8 94       	cli
     afe:	de bf       	out	0x3e, r29	; 62
     b00:	0f be       	out	0x3f, r0	; 63
     b02:	cd bf       	out	0x3d, r28	; 61
     b04:	80 ed       	ldi	r24, 0xD0	; 208
     b06:	92 e0       	ldi	r25, 0x02	; 2
     b08:	9a 83       	std	Y+2, r25	; 0x02
     b0a:	89 83       	std	Y+1, r24	; 0x01
     b0c:	a0 e7       	ldi	r26, 0x70	; 112
     b0e:	b0 e0       	ldi	r27, 0x00	; 0
     b10:	bc 83       	std	Y+4, r27	; 0x04
     b12:	ab 83       	std	Y+3, r26	; 0x03
     b14:	0f 2e       	mov	r0, r31
     b16:	f0 eb       	ldi	r31, 0xB0	; 176
     b18:	2f 2e       	mov	r2, r31
     b1a:	f2 e0       	ldi	r31, 0x02	; 2
     b1c:	3f 2e       	mov	r3, r31
     b1e:	f0 2d       	mov	r31, r0
     b20:	09 81       	ldd	r16, Y+1	; 0x01
     b22:	1a 81       	ldd	r17, Y+2	; 0x02
	int16_t count,degree;
	uint8_t u,k;
	count = 0;
	for (u=0; u<(N_SAMPLE_POINTS/2); u++) {
		Pc[u][REAL] = Pc[u][IMG] = 0;
     b24:	f8 01       	movw	r30, r16
     b26:	14 82       	std	Z+4, r1	; 0x04
     b28:	15 82       	std	Z+5, r1	; 0x05
     b2a:	16 82       	std	Z+6, r1	; 0x06
     b2c:	17 82       	std	Z+7, r1	; 0x07
     b2e:	10 82       	st	Z, r1
     b30:	11 82       	std	Z+1, r1	; 0x01
     b32:	12 82       	std	Z+2, r1	; 0x02
     b34:	13 82       	std	Z+3, r1	; 0x03
     b36:	0f 2e       	mov	r0, r31
     b38:	f0 e7       	ldi	r31, 0x70	; 112
     b3a:	af 2e       	mov	r10, r31
     b3c:	f2 e0       	ldi	r31, 0x02	; 2
     b3e:	bf 2e       	mov	r11, r31
     b40:	f0 2d       	mov	r31, r0
     b42:	8b 80       	ldd	r8, Y+3	; 0x03
     b44:	9c 80       	ldd	r9, Y+4	; 0x04
		//_delay_ms(500);
		for (k=0; k<N_SAMPLE_POINTS; k++) {
			degree = degree_lookup[count]*2;
     b46:	f4 01       	movw	r30, r8
     b48:	21 91       	ld	r18, Z+
     b4a:	4f 01       	movw	r8, r30
     b4c:	2d 83       	std	Y+5, r18	; 0x05
			count++;
			//LCDPrintInt(analogTimeBuff[k],1);
			Pc[u][REAL] +=  (int32_t)analogTimeBuff[k] * pgm_read_word_near(cos_lookup+degree);
     b4e:	d5 01       	movw	r26, r10
     b50:	cd 90       	ld	r12, X+
     b52:	dd 90       	ld	r13, X+
     b54:	5d 01       	movw	r10, r26
     b56:	0d 2c       	mov	r0, r13
     b58:	00 0c       	add	r0, r0
     b5a:	ee 08       	sbc	r14, r14
     b5c:	ff 08       	sbc	r15, r15
     b5e:	e2 2f       	mov	r30, r18
     b60:	f0 e0       	ldi	r31, 0x00	; 0
     b62:	ee 0f       	add	r30, r30
     b64:	ff 1f       	adc	r31, r31
     b66:	ee 0f       	add	r30, r30
     b68:	ff 1f       	adc	r31, r31
     b6a:	ff 83       	std	Y+7, r31	; 0x07
     b6c:	ee 83       	std	Y+6, r30	; 0x06
     b6e:	ec 5d       	subi	r30, 0xDC	; 220
     b70:	fc 4f       	sbci	r31, 0xFC	; 252
     b72:	a5 91       	lpm	r26, Z+
     b74:	b4 91       	lpm	r27, Z
     b76:	a7 01       	movw	r20, r14
     b78:	96 01       	movw	r18, r12
     b7a:	0e 94 cf 07 	call	0xf9e	; 0xf9e <__muluhisi3>
     b7e:	d8 01       	movw	r26, r16
     b80:	4d 90       	ld	r4, X+
     b82:	5d 90       	ld	r5, X+
     b84:	6d 90       	ld	r6, X+
     b86:	7c 90       	ld	r7, X
     b88:	46 0e       	add	r4, r22
     b8a:	57 1e       	adc	r5, r23
     b8c:	68 1e       	adc	r6, r24
     b8e:	79 1e       	adc	r7, r25
     b90:	f8 01       	movw	r30, r16
     b92:	40 82       	st	Z, r4
     b94:	51 82       	std	Z+1, r5	; 0x01
     b96:	62 82       	std	Z+2, r6	; 0x02
     b98:	73 82       	std	Z+3, r7	; 0x03
			Pc[u][IMG] += -(int32_t)analogTimeBuff[k] * pgm_read_word_near(sin_lookup+degree);
     b9a:	ee 81       	ldd	r30, Y+6	; 0x06
     b9c:	ff 81       	ldd	r31, Y+7	; 0x07
     b9e:	ec 5a       	subi	r30, 0xAC	; 172
     ba0:	ff 4f       	sbci	r31, 0xFF	; 255
     ba2:	a5 91       	lpm	r26, Z+
     ba4:	b4 91       	lpm	r27, Z
     ba6:	22 27       	eor	r18, r18
     ba8:	33 27       	eor	r19, r19
     baa:	a9 01       	movw	r20, r18
     bac:	2c 19       	sub	r18, r12
     bae:	3d 09       	sbc	r19, r13
     bb0:	4e 09       	sbc	r20, r14
     bb2:	5f 09       	sbc	r21, r15
     bb4:	0e 94 cf 07 	call	0xf9e	; 0xf9e <__muluhisi3>
     bb8:	d8 01       	movw	r26, r16
     bba:	14 96       	adiw	r26, 0x04	; 4
     bbc:	cd 90       	ld	r12, X+
     bbe:	dd 90       	ld	r13, X+
     bc0:	ed 90       	ld	r14, X+
     bc2:	fc 90       	ld	r15, X
     bc4:	17 97       	sbiw	r26, 0x07	; 7
     bc6:	c6 0e       	add	r12, r22
     bc8:	d7 1e       	adc	r13, r23
     bca:	e8 1e       	adc	r14, r24
     bcc:	f9 1e       	adc	r15, r25
     bce:	f8 01       	movw	r30, r16
     bd0:	c4 82       	std	Z+4, r12	; 0x04
     bd2:	d5 82       	std	Z+5, r13	; 0x05
     bd4:	e6 82       	std	Z+6, r14	; 0x06
     bd6:	f7 82       	std	Z+7, r15	; 0x07
	uint8_t u,k;
	count = 0;
	for (u=0; u<(N_SAMPLE_POINTS/2); u++) {
		Pc[u][REAL] = Pc[u][IMG] = 0;
		//_delay_ms(500);
		for (k=0; k<N_SAMPLE_POINTS; k++) {
     bd8:	a2 14       	cp	r10, r2
     bda:	b3 04       	cpc	r11, r3
     bdc:	09 f0       	breq	.+2      	; 0xbe0 <DFT+0x110>
     bde:	b3 cf       	rjmp	.-154    	; 0xb46 <DFT+0x76>
			Pc[u][IMG] += -(int32_t)analogTimeBuff[k] * pgm_read_word_near(sin_lookup+degree);
		}
		//Lcd4_Clear();
		//LCDPrintInt(Pc[u][REAL],2);
		Pc[u][REAL] /= N_SAMPLE_POINTS;
		Pc[u][REAL] /= 10000;
     be0:	c3 01       	movw	r24, r6
     be2:	b2 01       	movw	r22, r4
     be4:	20 e0       	ldi	r18, 0x00	; 0
     be6:	32 ee       	ldi	r19, 0xE2	; 226
     be8:	44 e0       	ldi	r20, 0x04	; 4
     bea:	50 e0       	ldi	r21, 0x00	; 0
     bec:	0e 94 b0 07 	call	0xf60	; 0xf60 <__divmodsi4>
     bf0:	d8 01       	movw	r26, r16
     bf2:	2d 93       	st	X+, r18
     bf4:	3d 93       	st	X+, r19
     bf6:	4d 93       	st	X+, r20
     bf8:	5c 93       	st	X, r21
     bfa:	13 97       	sbiw	r26, 0x03	; 3
		Pc[u][IMG] /= N_SAMPLE_POINTS;
		Pc[u][IMG] /= 10000;
     bfc:	c7 01       	movw	r24, r14
     bfe:	b6 01       	movw	r22, r12
     c00:	20 e0       	ldi	r18, 0x00	; 0
     c02:	32 ee       	ldi	r19, 0xE2	; 226
     c04:	44 e0       	ldi	r20, 0x04	; 4
     c06:	50 e0       	ldi	r21, 0x00	; 0
     c08:	0e 94 b0 07 	call	0xf60	; 0xf60 <__divmodsi4>
     c0c:	f8 01       	movw	r30, r16
     c0e:	24 83       	std	Z+4, r18	; 0x04
     c10:	35 83       	std	Z+5, r19	; 0x05
     c12:	46 83       	std	Z+6, r20	; 0x06
     c14:	57 83       	std	Z+7, r21	; 0x07
     c16:	89 81       	ldd	r24, Y+1	; 0x01
     c18:	9a 81       	ldd	r25, Y+2	; 0x02
     c1a:	08 96       	adiw	r24, 0x08	; 8
     c1c:	9a 83       	std	Y+2, r25	; 0x02
     c1e:	89 83       	std	Y+1, r24	; 0x01
     c20:	ab 81       	ldd	r26, Y+3	; 0x03
     c22:	bc 81       	ldd	r27, Y+4	; 0x04
     c24:	90 96       	adiw	r26, 0x20	; 32
     c26:	bc 83       	std	Y+4, r27	; 0x04
     c28:	ab 83       	std	Y+3, r26	; 0x03
void DFT()
{
	int16_t count,degree;
	uint8_t u,k;
	count = 0;
	for (u=0; u<(N_SAMPLE_POINTS/2); u++) {
     c2a:	80 55       	subi	r24, 0x50	; 80
     c2c:	93 40       	sbci	r25, 0x03	; 3
     c2e:	09 f0       	breq	.+2      	; 0xc32 <DFT+0x162>
     c30:	77 cf       	rjmp	.-274    	; 0xb20 <DFT+0x50>
     c32:	e8 ed       	ldi	r30, 0xD8	; 216
     c34:	f2 e0       	ldi	r31, 0x02	; 2
     c36:	85 e7       	ldi	r24, 0x75	; 117
     c38:	93 e0       	ldi	r25, 0x03	; 3
     c3a:	9a 83       	std	Y+2, r25	; 0x02
     c3c:	89 83       	std	Y+1, r24	; 0x01
     c3e:	9c 01       	movw	r18, r24
     c40:	df 01       	movw	r26, r30
		Pc[u][IMG] /= N_SAMPLE_POINTS;
		Pc[u][IMG] /= 10000;
		//_delay_ms(1000);
	}
	for (u=1; u<N_SAMPLE_POINTS/2; u++) {
		if(Pc[u][0]<0)Pc[u][REAL]*=-1;
     c42:	40 81       	ld	r20, Z
     c44:	51 81       	ldd	r21, Z+1	; 0x01
     c46:	62 81       	ldd	r22, Z+2	; 0x02
     c48:	73 81       	ldd	r23, Z+3	; 0x03
     c4a:	77 23       	and	r23, r23
     c4c:	5c f4       	brge	.+22     	; 0xc64 <DFT+0x194>
     c4e:	70 95       	com	r23
     c50:	60 95       	com	r22
     c52:	50 95       	com	r21
     c54:	41 95       	neg	r20
     c56:	5f 4f       	sbci	r21, 0xFF	; 255
     c58:	6f 4f       	sbci	r22, 0xFF	; 255
     c5a:	7f 4f       	sbci	r23, 0xFF	; 255
     c5c:	40 83       	st	Z, r20
     c5e:	51 83       	std	Z+1, r21	; 0x01
     c60:	62 83       	std	Z+2, r22	; 0x02
     c62:	73 83       	std	Z+3, r23	; 0x03
		if(Pc[u][1]<0)Pc[u][IMG]*=-1;
     c64:	14 96       	adiw	r26, 0x04	; 4
     c66:	4d 91       	ld	r20, X+
     c68:	5d 91       	ld	r21, X+
     c6a:	6d 91       	ld	r22, X+
     c6c:	7c 91       	ld	r23, X
     c6e:	17 97       	sbiw	r26, 0x07	; 7
     c70:	77 23       	and	r23, r23
     c72:	6c f4       	brge	.+26     	; 0xc8e <DFT+0x1be>
     c74:	70 95       	com	r23
     c76:	60 95       	com	r22
     c78:	50 95       	com	r21
     c7a:	41 95       	neg	r20
     c7c:	5f 4f       	sbci	r21, 0xFF	; 255
     c7e:	6f 4f       	sbci	r22, 0xFF	; 255
     c80:	7f 4f       	sbci	r23, 0xFF	; 255
     c82:	14 96       	adiw	r26, 0x04	; 4
     c84:	4d 93       	st	X+, r20
     c86:	5d 93       	st	X+, r21
     c88:	6d 93       	st	X+, r22
     c8a:	7c 93       	st	X, r23
     c8c:	17 97       	sbiw	r26, 0x07	; 7
		P[u] = (Pc[u][REAL] + Pc[u][IMG])/4;//(uint8_t)
     c8e:	4d 91       	ld	r20, X+
     c90:	5d 91       	ld	r21, X+
     c92:	6d 91       	ld	r22, X+
     c94:	7c 91       	ld	r23, X
     c96:	13 97       	sbiw	r26, 0x03	; 3
     c98:	14 96       	adiw	r26, 0x04	; 4
     c9a:	8d 91       	ld	r24, X+
     c9c:	9d 91       	ld	r25, X+
     c9e:	0d 90       	ld	r0, X+
     ca0:	bc 91       	ld	r27, X
     ca2:	a0 2d       	mov	r26, r0
     ca4:	48 0f       	add	r20, r24
     ca6:	59 1f       	adc	r21, r25
     ca8:	6a 1f       	adc	r22, r26
     caa:	7b 1f       	adc	r23, r27
     cac:	db 01       	movw	r26, r22
     cae:	ca 01       	movw	r24, r20
     cb0:	77 23       	and	r23, r23
     cb2:	1c f4       	brge	.+6      	; 0xcba <DFT+0x1ea>
     cb4:	03 96       	adiw	r24, 0x03	; 3
     cb6:	a1 1d       	adc	r26, r1
     cb8:	b1 1d       	adc	r27, r1
     cba:	ac 01       	movw	r20, r24
     cbc:	bd 01       	movw	r22, r26
     cbe:	75 95       	asr	r23
     cc0:	67 95       	ror	r22
     cc2:	57 95       	ror	r21
     cc4:	47 95       	ror	r20
     cc6:	75 95       	asr	r23
     cc8:	67 95       	ror	r22
     cca:	57 95       	ror	r21
     ccc:	47 95       	ror	r20
     cce:	d9 01       	movw	r26, r18
     cd0:	4d 93       	st	X+, r20
     cd2:	5d 93       	st	X+, r21
     cd4:	6d 93       	st	X+, r22
     cd6:	7d 93       	st	X+, r23
     cd8:	9d 01       	movw	r18, r26
     cda:	38 96       	adiw	r30, 0x08	; 8
		Pc[u][REAL] /= 10000;
		Pc[u][IMG] /= N_SAMPLE_POINTS;
		Pc[u][IMG] /= 10000;
		//_delay_ms(1000);
	}
	for (u=1; u<N_SAMPLE_POINTS/2; u++) {
     cdc:	b3 e0       	ldi	r27, 0x03	; 3
     cde:	e0 35       	cpi	r30, 0x50	; 80
     ce0:	fb 07       	cpc	r31, r27
     ce2:	09 f0       	breq	.+2      	; 0xce6 <DFT+0x216>
     ce4:	ad cf       	rjmp	.-166    	; 0xc40 <DFT+0x170>
		if(Pc[u][1]<0)Pc[u][IMG]*=-1;
		P[u] = (Pc[u][REAL] + Pc[u][IMG])/4;//(uint8_t)
		//if(P[u]<minV) minV = P[u]; // && P[u]
		//if(P[u]>maxV) maxV = P[u];
	}
}
     ce6:	27 96       	adiw	r28, 0x07	; 7
     ce8:	0f b6       	in	r0, 0x3f	; 63
     cea:	f8 94       	cli
     cec:	de bf       	out	0x3e, r29	; 62
     cee:	0f be       	out	0x3f, r0	; 63
     cf0:	cd bf       	out	0x3d, r28	; 61
     cf2:	df 91       	pop	r29
     cf4:	cf 91       	pop	r28
     cf6:	1f 91       	pop	r17
     cf8:	0f 91       	pop	r16
     cfa:	ff 90       	pop	r15
     cfc:	ef 90       	pop	r14
     cfe:	df 90       	pop	r13
     d00:	cf 90       	pop	r12
     d02:	bf 90       	pop	r11
     d04:	af 90       	pop	r10
     d06:	9f 90       	pop	r9
     d08:	8f 90       	pop	r8
     d0a:	7f 90       	pop	r7
     d0c:	6f 90       	pop	r6
     d0e:	5f 90       	pop	r5
     d10:	4f 90       	pop	r4
     d12:	3f 90       	pop	r3
     d14:	2f 90       	pop	r2
     d16:	08 95       	ret

00000d18 <adcConfig>:


int adcCycDur=0;
void adcConfig()
{
	ADMUX = (((0<<REFS1)|(1<<REFS0)|(1<<ADLAR))+0);
     d18:	80 e6       	ldi	r24, 0x60	; 96
     d1a:	87 b9       	out	0x07, r24	; 7
	ADCSRA =  (1<<ADEN)+3;//prescaler=3 : div=8
     d1c:	83 e8       	ldi	r24, 0x83	; 131
     d1e:	86 b9       	out	0x06, r24	; 6
     d20:	08 95       	ret

00000d22 <timerConfig>:
	// adc clock = 1M/8 = 125KHz
	// adc sample Freq = 125/13 = 9KHz => time_req = 104us < sampling, hence ok
}

void timerConfig(){
	OCR1A = SAMPLING_PERIOD;
     d22:	8d e7       	ldi	r24, 0x7D	; 125
     d24:	90 e0       	ldi	r25, 0x00	; 0
     d26:	9b bd       	out	0x2b, r25	; 43
     d28:	8a bd       	out	0x2a, r24	; 42
	//OCR1B = SAMPLING_SLEEP_CYCLE;
	TCCR1A = 0;
     d2a:	1f bc       	out	0x2f, r1	; 47
	TCCR1B = (1<<WGM12) | (1<<CS10);
     d2c:	89 e0       	ldi	r24, 0x09	; 9
     d2e:	8e bd       	out	0x2e, r24	; 46
     d30:	08 95       	ret

00000d32 <initDataTables>:
}


void initDataTables()
{
	analogBuffIndex=0;
     d32:	10 92 70 03 	sts	0x0370, r1	; 0x800370 <analogBuffIndex>
     d36:	a0 e7       	ldi	r26, 0x70	; 112
     d38:	b2 e0       	ldi	r27, 0x02	; 2
     d3a:	e1 e7       	ldi	r30, 0x71	; 113
     d3c:	f3 e0       	ldi	r31, 0x03	; 3
     d3e:	81 ef       	ldi	r24, 0xF1	; 241
     d40:	93 e0       	ldi	r25, 0x03	; 3
	//initializeSinCosTable();
	int i;
	forLoop(i,N_SAMPLE_POINTS)
	{
		TIME_AMP_ARRAY[i]=0;
     d42:	1d 92       	st	X+, r1
     d44:	1d 92       	st	X+, r1
		//FREQ_CMPLX_ARRAY[i][REAL]=FREQ_CMPLX_ARRAY[i][IMG]=0;
		FREQ_MAG_ARRAY[i]=0;
     d46:	11 92       	st	Z+, r1
     d48:	11 92       	st	Z+, r1
     d4a:	11 92       	st	Z+, r1
     d4c:	11 92       	st	Z+, r1
void initDataTables()
{
	analogBuffIndex=0;
	//initializeSinCosTable();
	int i;
	forLoop(i,N_SAMPLE_POINTS)
     d4e:	e8 17       	cp	r30, r24
     d50:	f9 07       	cpc	r31, r25
     d52:	b9 f7       	brne	.-18     	; 0xd42 <initDataTables+0x10>
     d54:	e0 ed       	ldi	r30, 0xD0	; 208
     d56:	f2 e0       	ldi	r31, 0x02	; 2
     d58:	80 e5       	ldi	r24, 0x50	; 80
     d5a:	93 e0       	ldi	r25, 0x03	; 3
		//FREQ_CMPLX_ARRAY[i][REAL]=FREQ_CMPLX_ARRAY[i][IMG]=0;
		FREQ_MAG_ARRAY[i]=0;
	}
	forLoop(i,N_SAMPLE_POINTS/2)
	{
		FREQ_CMPLX_ARRAY[i][REAL]=FREQ_CMPLX_ARRAY[i][IMG]=0;
     d5c:	14 82       	std	Z+4, r1	; 0x04
     d5e:	15 82       	std	Z+5, r1	; 0x05
     d60:	16 82       	std	Z+6, r1	; 0x06
     d62:	17 82       	std	Z+7, r1	; 0x07
     d64:	10 82       	st	Z, r1
     d66:	11 82       	std	Z+1, r1	; 0x01
     d68:	12 82       	std	Z+2, r1	; 0x02
     d6a:	13 82       	std	Z+3, r1	; 0x03
     d6c:	38 96       	adiw	r30, 0x08	; 8
	{
		TIME_AMP_ARRAY[i]=0;
		//FREQ_CMPLX_ARRAY[i][REAL]=FREQ_CMPLX_ARRAY[i][IMG]=0;
		FREQ_MAG_ARRAY[i]=0;
	}
	forLoop(i,N_SAMPLE_POINTS/2)
     d6e:	e8 17       	cp	r30, r24
     d70:	f9 07       	cpc	r31, r25
     d72:	a1 f7       	brne	.-24     	; 0xd5c <initDataTables+0x2a>
	{
		FREQ_CMPLX_ARRAY[i][REAL]=FREQ_CMPLX_ARRAY[i][IMG]=0;
	}

}
     d74:	08 95       	ret

00000d76 <readAnalogValue>:

uint16_t readAnalogValue(uint8_t res)
{
	//adcCycDur=TCNT1;
	while(ADCSRA&(1<<ADSC));
     d76:	36 99       	sbic	0x06, 6	; 6
     d78:	fe cf       	rjmp	.-4      	; 0xd76 <readAnalogValue>
	//adcCycDur=TCNT1-adcCycDur;
	analogValue = ADCL;
     d7a:	24 b1       	in	r18, 0x04	; 4
     d7c:	30 e0       	ldi	r19, 0x00	; 0
     d7e:	30 93 6f 03 	sts	0x036F, r19	; 0x80036f <analogValue+0x1>
     d82:	20 93 6e 03 	sts	0x036E, r18	; 0x80036e <analogValue>
	if(res==10)
     d86:	8a 30       	cpi	r24, 0x0A	; 10
     d88:	b1 f4       	brne	.+44     	; 0xdb6 <readAnalogValue+0x40>
	analogValue = (analogValue>>6)|(ADCH<<2);
     d8a:	85 b1       	in	r24, 0x05	; 5
     d8c:	00 24       	eor	r0, r0
     d8e:	22 0f       	add	r18, r18
     d90:	33 1f       	adc	r19, r19
     d92:	00 1c       	adc	r0, r0
     d94:	22 0f       	add	r18, r18
     d96:	33 1f       	adc	r19, r19
     d98:	00 1c       	adc	r0, r0
     d9a:	23 2f       	mov	r18, r19
     d9c:	30 2d       	mov	r19, r0
     d9e:	90 e0       	ldi	r25, 0x00	; 0
     da0:	88 0f       	add	r24, r24
     da2:	99 1f       	adc	r25, r25
     da4:	88 0f       	add	r24, r24
     da6:	99 1f       	adc	r25, r25
     da8:	28 2b       	or	r18, r24
     daa:	39 2b       	or	r19, r25
     dac:	30 93 6f 03 	sts	0x036F, r19	; 0x80036f <analogValue+0x1>
     db0:	20 93 6e 03 	sts	0x036E, r18	; 0x80036e <analogValue>
     db4:	06 c0       	rjmp	.+12     	; 0xdc2 <readAnalogValue+0x4c>
	else
	analogValue = ADCH;
     db6:	85 b1       	in	r24, 0x05	; 5
     db8:	90 e0       	ldi	r25, 0x00	; 0
     dba:	90 93 6f 03 	sts	0x036F, r25	; 0x80036f <analogValue+0x1>
     dbe:	80 93 6e 03 	sts	0x036E, r24	; 0x80036e <analogValue>
	//ADCSRA |= (1<<ADSC);// start conversion
	return analogValue;
}
     dc2:	80 91 6e 03 	lds	r24, 0x036E	; 0x80036e <analogValue>
     dc6:	90 91 6f 03 	lds	r25, 0x036F	; 0x80036f <analogValue+0x1>
     dca:	08 95       	ret

00000dcc <Sampling>:
#define PRINT_ARRAY SPEC_BIN_MAG_ARRAY
#define PRINT_ARRAY_STEP 1


void Sampling()
{
     dcc:	cf 93       	push	r28
     dce:	df 93       	push	r29
	for(analogBuffIndex=0;analogBuffIndex<N_SAMPLE_POINTS;analogBuffIndex++) {
     dd0:	10 92 70 03 	sts	0x0370, r1	; 0x800370 <analogBuffIndex>
		TCNT1=0;
     dd4:	1d bc       	out	0x2d, r1	; 45
     dd6:	1c bc       	out	0x2c, r1	; 44
		TIFR |= 1<<OCF1A;
     dd8:	88 b7       	in	r24, 0x38	; 56
     dda:	80 61       	ori	r24, 0x10	; 16
     ddc:	88 bf       	out	0x38, r24	; 56
		ADCSRA |= (1<<ADSC);
     dde:	36 9a       	sbi	0x06, 6	; 6
		while((TIFR & (1<<OCF1A)) == 0);
     de0:	08 b6       	in	r0, 0x38	; 56
     de2:	04 fe       	sbrs	r0, 4
     de4:	fd cf       	rjmp	.-6      	; 0xde0 <Sampling+0x14>
		TIME_AMP_ARRAY[analogBuffIndex] = readAnalogValue(8);
     de6:	c0 91 70 03 	lds	r28, 0x0370	; 0x800370 <analogBuffIndex>
     dea:	d0 e0       	ldi	r29, 0x00	; 0
     dec:	88 e0       	ldi	r24, 0x08	; 8
     dee:	0e 94 bb 06 	call	0xd76	; 0xd76 <readAnalogValue>
     df2:	cc 0f       	add	r28, r28
     df4:	dd 1f       	adc	r29, r29
     df6:	c0 59       	subi	r28, 0x90	; 144
     df8:	dd 4f       	sbci	r29, 0xFD	; 253
     dfa:	99 83       	std	Y+1, r25	; 0x01
     dfc:	88 83       	st	Y, r24
#define PRINT_ARRAY_STEP 1


void Sampling()
{
	for(analogBuffIndex=0;analogBuffIndex<N_SAMPLE_POINTS;analogBuffIndex++) {
     dfe:	80 91 70 03 	lds	r24, 0x0370	; 0x800370 <analogBuffIndex>
     e02:	8f 5f       	subi	r24, 0xFF	; 255
     e04:	80 93 70 03 	sts	0x0370, r24	; 0x800370 <analogBuffIndex>
     e08:	80 32       	cpi	r24, 0x20	; 32
     e0a:	20 f3       	brcs	.-56     	; 0xdd4 <Sampling+0x8>
		TIFR |= 1<<OCF1A;
		ADCSRA |= (1<<ADSC);
		while((TIFR & (1<<OCF1A)) == 0);
		TIME_AMP_ARRAY[analogBuffIndex] = readAnalogValue(8);
	}
}
     e0c:	df 91       	pop	r29
     e0e:	cf 91       	pop	r28
     e10:	08 95       	ret

00000e12 <Spectrum>:

void Spectrum()
{
     e12:	ef 92       	push	r14
     e14:	ff 92       	push	r15
     e16:	0f 93       	push	r16
     e18:	1f 93       	push	r17
     e1a:	cf 93       	push	r28
     e1c:	df 93       	push	r29
     e1e:	e1 e7       	ldi	r30, 0x71	; 113
     e20:	f3 e0       	ldi	r31, 0x03	; 3
     e22:	c0 eb       	ldi	r28, 0xB0	; 176
     e24:	d2 e0       	ldi	r29, 0x02	; 2
     e26:	21 ef       	ldi	r18, 0xF1	; 241
     e28:	33 e0       	ldi	r19, 0x03	; 3
	int i1,i2;
	forLoop(i,N_SAMPLE_POINTS/2)
	{
		i1 = 2*i;
		i2 = i1+1;
		SPEC_BIN_MAG_ARRAY[i] = ((FREQ_MAG_ARRAY[i1]+FREQ_MAG_ARRAY[i2])/2);
     e2a:	40 81       	ld	r20, Z
     e2c:	51 81       	ldd	r21, Z+1	; 0x01
     e2e:	62 81       	ldd	r22, Z+2	; 0x02
     e30:	73 81       	ldd	r23, Z+3	; 0x03
     e32:	84 81       	ldd	r24, Z+4	; 0x04
     e34:	95 81       	ldd	r25, Z+5	; 0x05
     e36:	a6 81       	ldd	r26, Z+6	; 0x06
     e38:	b7 81       	ldd	r27, Z+7	; 0x07
     e3a:	48 0f       	add	r20, r24
     e3c:	59 1f       	adc	r21, r25
     e3e:	6a 1f       	adc	r22, r26
     e40:	7b 1f       	adc	r23, r27
     e42:	db 01       	movw	r26, r22
     e44:	ca 01       	movw	r24, r20
     e46:	77 23       	and	r23, r23
     e48:	1c f4       	brge	.+6      	; 0xe50 <Spectrum+0x3e>
     e4a:	01 96       	adiw	r24, 0x01	; 1
     e4c:	a1 1d       	adc	r26, r1
     e4e:	b1 1d       	adc	r27, r1
     e50:	b5 95       	asr	r27
     e52:	a7 95       	ror	r26
     e54:	97 95       	ror	r25
     e56:	87 95       	ror	r24
		if(SPEC_BIN_MAG_ARRAY[i]<0) SPEC_BIN_MAG_ARRAY[i]=0;
     e58:	99 23       	and	r25, r25
     e5a:	1c f0       	brlt	.+6      	; 0xe62 <Spectrum+0x50>
	int i1,i2;
	forLoop(i,N_SAMPLE_POINTS/2)
	{
		i1 = 2*i;
		i2 = i1+1;
		SPEC_BIN_MAG_ARRAY[i] = ((FREQ_MAG_ARRAY[i1]+FREQ_MAG_ARRAY[i2])/2);
     e5c:	99 83       	std	Y+1, r25	; 0x01
     e5e:	88 83       	st	Y, r24
     e60:	02 c0       	rjmp	.+4      	; 0xe66 <Spectrum+0x54>
		if(SPEC_BIN_MAG_ARRAY[i]<0) SPEC_BIN_MAG_ARRAY[i]=0;
     e62:	19 82       	std	Y+1, r1	; 0x01
     e64:	18 82       	st	Y, r1
     e66:	38 96       	adiw	r30, 0x08	; 8
     e68:	22 96       	adiw	r28, 0x02	; 2

void Spectrum()
{
	int i;
	int i1,i2;
	forLoop(i,N_SAMPLE_POINTS/2)
     e6a:	e2 17       	cp	r30, r18
     e6c:	f3 07       	cpc	r31, r19
     e6e:	e9 f6       	brne	.-70     	; 0xe2a <Spectrum+0x18>
		i2 = i1+1;
		SPEC_BIN_MAG_ARRAY[i] = ((FREQ_MAG_ARRAY[i1]+FREQ_MAG_ARRAY[i2])/2);
		if(SPEC_BIN_MAG_ARRAY[i]<0) SPEC_BIN_MAG_ARRAY[i]=0;
	}

	Lcd4_Clear();
     e70:	0e 94 be 04 	call	0x97c	; 0x97c <Lcd4_Clear>
	
	Lcd4_Set_Cursor(1,0);
     e74:	60 e0       	ldi	r22, 0x00	; 0
     e76:	81 e0       	ldi	r24, 0x01	; 1
     e78:	0e 94 c5 04 	call	0x98a	; 0x98a <Lcd4_Set_Cursor>
	sprintf(lcdStringBuff,"%d %d %d %d",(int)PRINT_ARRAY[0],(int)PRINT_ARRAY[1*PRINT_ARRAY_STEP],(int)PRINT_ARRAY[2*PRINT_ARRAY_STEP],(int)PRINT_ARRAY[3*PRINT_ARRAY_STEP]);//"%d %d %d %d" //"%ld %ld %ld %ld"
     e7c:	c0 eb       	ldi	r28, 0xB0	; 176
     e7e:	d2 e0       	ldi	r29, 0x02	; 2
     e80:	8f 81       	ldd	r24, Y+7	; 0x07
     e82:	8f 93       	push	r24
     e84:	8e 81       	ldd	r24, Y+6	; 0x06
     e86:	8f 93       	push	r24
     e88:	8d 81       	ldd	r24, Y+5	; 0x05
     e8a:	8f 93       	push	r24
     e8c:	8c 81       	ldd	r24, Y+4	; 0x04
     e8e:	8f 93       	push	r24
     e90:	8b 81       	ldd	r24, Y+3	; 0x03
     e92:	8f 93       	push	r24
     e94:	8a 81       	ldd	r24, Y+2	; 0x02
     e96:	8f 93       	push	r24
     e98:	89 81       	ldd	r24, Y+1	; 0x01
     e9a:	8f 93       	push	r24
     e9c:	88 81       	ld	r24, Y
     e9e:	8f 93       	push	r24
     ea0:	0f 2e       	mov	r0, r31
     ea2:	f4 e6       	ldi	r31, 0x64	; 100
     ea4:	ef 2e       	mov	r14, r31
     ea6:	f0 e0       	ldi	r31, 0x00	; 0
     ea8:	ff 2e       	mov	r15, r31
     eaa:	f0 2d       	mov	r31, r0
     eac:	ff 92       	push	r15
     eae:	ef 92       	push	r14
     eb0:	00 e5       	ldi	r16, 0x50	; 80
     eb2:	13 e0       	ldi	r17, 0x03	; 3
     eb4:	1f 93       	push	r17
     eb6:	0f 93       	push	r16
     eb8:	0e 94 0b 08 	call	0x1016	; 0x1016 <sprintf>
	Lcd4_Write_String(lcdStringBuff);
     ebc:	c8 01       	movw	r24, r16
     ebe:	0e 94 59 05 	call	0xab2	; 0xab2 <Lcd4_Write_String>

	Lcd4_Set_Cursor(2,0);
     ec2:	60 e0       	ldi	r22, 0x00	; 0
     ec4:	82 e0       	ldi	r24, 0x02	; 2
     ec6:	0e 94 c5 04 	call	0x98a	; 0x98a <Lcd4_Set_Cursor>
	sprintf(lcdStringBuff,"%d %d %d %d",(int)PRINT_ARRAY[4*PRINT_ARRAY_STEP],(int)PRINT_ARRAY[5*PRINT_ARRAY_STEP],(int)PRINT_ARRAY[6*PRINT_ARRAY_STEP],(int)PRINT_ARRAY[7*PRINT_ARRAY_STEP]);
     eca:	8f 85       	ldd	r24, Y+15	; 0x0f
     ecc:	8f 93       	push	r24
     ece:	8e 85       	ldd	r24, Y+14	; 0x0e
     ed0:	8f 93       	push	r24
     ed2:	8d 85       	ldd	r24, Y+13	; 0x0d
     ed4:	8f 93       	push	r24
     ed6:	8c 85       	ldd	r24, Y+12	; 0x0c
     ed8:	8f 93       	push	r24
     eda:	8b 85       	ldd	r24, Y+11	; 0x0b
     edc:	8f 93       	push	r24
     ede:	8a 85       	ldd	r24, Y+10	; 0x0a
     ee0:	8f 93       	push	r24
     ee2:	89 85       	ldd	r24, Y+9	; 0x09
     ee4:	8f 93       	push	r24
     ee6:	88 85       	ldd	r24, Y+8	; 0x08
     ee8:	8f 93       	push	r24
     eea:	ff 92       	push	r15
     eec:	ef 92       	push	r14
     eee:	1f 93       	push	r17
     ef0:	0f 93       	push	r16
     ef2:	0e 94 0b 08 	call	0x1016	; 0x1016 <sprintf>
	Lcd4_Write_String(lcdStringBuff);
     ef6:	c8 01       	movw	r24, r16
     ef8:	0e 94 59 05 	call	0xab2	; 0xab2 <Lcd4_Write_String>
	
	Lcd4_Set_Cursor(1,0);
     efc:	60 e0       	ldi	r22, 0x00	; 0
     efe:	81 e0       	ldi	r24, 0x01	; 1
     f00:	0e 94 c5 04 	call	0x98a	; 0x98a <Lcd4_Set_Cursor>
	//sprintf(lcdStringBuff,"MAX : %ld  %d",maxV,analogTimeBuff[0]);
	//Lcd4_Write_String(lcdStringBuff);

	Lcd4_Set_Cursor(2,0);
     f04:	60 e0       	ldi	r22, 0x00	; 0
     f06:	82 e0       	ldi	r24, 0x02	; 2
     f08:	0e 94 c5 04 	call	0x98a	; 0x98a <Lcd4_Set_Cursor>
	//sprintf(lcdStringBuff,"MIN : %ld  %d",minV,analogTimeBuff[7]);
	//Lcd4_Write_String(lcdStringBuff);

}
     f0c:	8d b7       	in	r24, 0x3d	; 61
     f0e:	9e b7       	in	r25, 0x3e	; 62
     f10:	48 96       	adiw	r24, 0x18	; 24
     f12:	0f b6       	in	r0, 0x3f	; 63
     f14:	f8 94       	cli
     f16:	9e bf       	out	0x3e, r25	; 62
     f18:	0f be       	out	0x3f, r0	; 63
     f1a:	8d bf       	out	0x3d, r24	; 61
     f1c:	df 91       	pop	r29
     f1e:	cf 91       	pop	r28
     f20:	1f 91       	pop	r17
     f22:	0f 91       	pop	r16
     f24:	ff 90       	pop	r15
     f26:	ef 90       	pop	r14
     f28:	08 95       	ret

00000f2a <main>:

int main(void)
{
	DDRD = 0xFF;
     f2a:	8f ef       	ldi	r24, 0xFF	; 255
     f2c:	81 bb       	out	0x11, r24	; 17
	DDRC = 0xFF;
     f2e:	84 bb       	out	0x14, r24	; 20


	
	adcConfig();
     f30:	0e 94 8c 06 	call	0xd18	; 0xd18 <adcConfig>
	timerConfig();
     f34:	0e 94 91 06 	call	0xd22	; 0xd22 <timerConfig>
	//Lcd8_Init();
	Lcd4_Init();
     f38:	0e 94 e2 04 	call	0x9c4	; 0x9c4 <Lcd4_Init>
	initDataTables();
     f3c:	0e 94 99 06 	call	0xd32	; 0xd32 <initDataTables>
	//set_sleep_mode(SLEEP_MODE_IDLE);
	//sleep_enable();
	while(1)
	{

		Sampling();
     f40:	0e 94 e6 06 	call	0xdcc	; 0xdcc <Sampling>

		DFT();
     f44:	0e 94 68 05 	call	0xad0	; 0xad0 <DFT>
		
		Spectrum();
     f48:	0e 94 09 07 	call	0xe12	; 0xe12 <Spectrum>
	#else
		//round up by default
		__ticks_dc = (uint32_t)(ceil(fabs(__tmp)));
	#endif

	__builtin_avr_delay_cycles(__ticks_dc);
     f4c:	2f ee       	ldi	r18, 0xEF	; 239
     f4e:	89 e4       	ldi	r24, 0x49	; 73
     f50:	92 e0       	ldi	r25, 0x02	; 2
     f52:	21 50       	subi	r18, 0x01	; 1
     f54:	80 40       	sbci	r24, 0x00	; 0
     f56:	90 40       	sbci	r25, 0x00	; 0
     f58:	e1 f7       	brne	.-8      	; 0xf52 <main+0x28>
     f5a:	00 c0       	rjmp	.+0      	; 0xf5c <main+0x32>
     f5c:	00 00       	nop
     f5e:	f0 cf       	rjmp	.-32     	; 0xf40 <main+0x16>

00000f60 <__divmodsi4>:
     f60:	05 2e       	mov	r0, r21
     f62:	97 fb       	bst	r25, 7
     f64:	1e f4       	brtc	.+6      	; 0xf6c <__divmodsi4+0xc>
     f66:	00 94       	com	r0
     f68:	0e 94 c7 07 	call	0xf8e	; 0xf8e <__negsi2>
     f6c:	57 fd       	sbrc	r21, 7
     f6e:	07 d0       	rcall	.+14     	; 0xf7e <__divmodsi4_neg2>
     f70:	0e 94 da 07 	call	0xfb4	; 0xfb4 <__udivmodsi4>
     f74:	07 fc       	sbrc	r0, 7
     f76:	03 d0       	rcall	.+6      	; 0xf7e <__divmodsi4_neg2>
     f78:	4e f4       	brtc	.+18     	; 0xf8c <__divmodsi4_exit>
     f7a:	0c 94 c7 07 	jmp	0xf8e	; 0xf8e <__negsi2>

00000f7e <__divmodsi4_neg2>:
     f7e:	50 95       	com	r21
     f80:	40 95       	com	r20
     f82:	30 95       	com	r19
     f84:	21 95       	neg	r18
     f86:	3f 4f       	sbci	r19, 0xFF	; 255
     f88:	4f 4f       	sbci	r20, 0xFF	; 255
     f8a:	5f 4f       	sbci	r21, 0xFF	; 255

00000f8c <__divmodsi4_exit>:
     f8c:	08 95       	ret

00000f8e <__negsi2>:
     f8e:	90 95       	com	r25
     f90:	80 95       	com	r24
     f92:	70 95       	com	r23
     f94:	61 95       	neg	r22
     f96:	7f 4f       	sbci	r23, 0xFF	; 255
     f98:	8f 4f       	sbci	r24, 0xFF	; 255
     f9a:	9f 4f       	sbci	r25, 0xFF	; 255
     f9c:	08 95       	ret

00000f9e <__muluhisi3>:
     f9e:	0e 94 fc 07 	call	0xff8	; 0xff8 <__umulhisi3>
     fa2:	a5 9f       	mul	r26, r21
     fa4:	90 0d       	add	r25, r0
     fa6:	b4 9f       	mul	r27, r20
     fa8:	90 0d       	add	r25, r0
     faa:	a4 9f       	mul	r26, r20
     fac:	80 0d       	add	r24, r0
     fae:	91 1d       	adc	r25, r1
     fb0:	11 24       	eor	r1, r1
     fb2:	08 95       	ret

00000fb4 <__udivmodsi4>:
     fb4:	a1 e2       	ldi	r26, 0x21	; 33
     fb6:	1a 2e       	mov	r1, r26
     fb8:	aa 1b       	sub	r26, r26
     fba:	bb 1b       	sub	r27, r27
     fbc:	fd 01       	movw	r30, r26
     fbe:	0d c0       	rjmp	.+26     	; 0xfda <__udivmodsi4_ep>

00000fc0 <__udivmodsi4_loop>:
     fc0:	aa 1f       	adc	r26, r26
     fc2:	bb 1f       	adc	r27, r27
     fc4:	ee 1f       	adc	r30, r30
     fc6:	ff 1f       	adc	r31, r31
     fc8:	a2 17       	cp	r26, r18
     fca:	b3 07       	cpc	r27, r19
     fcc:	e4 07       	cpc	r30, r20
     fce:	f5 07       	cpc	r31, r21
     fd0:	20 f0       	brcs	.+8      	; 0xfda <__udivmodsi4_ep>
     fd2:	a2 1b       	sub	r26, r18
     fd4:	b3 0b       	sbc	r27, r19
     fd6:	e4 0b       	sbc	r30, r20
     fd8:	f5 0b       	sbc	r31, r21

00000fda <__udivmodsi4_ep>:
     fda:	66 1f       	adc	r22, r22
     fdc:	77 1f       	adc	r23, r23
     fde:	88 1f       	adc	r24, r24
     fe0:	99 1f       	adc	r25, r25
     fe2:	1a 94       	dec	r1
     fe4:	69 f7       	brne	.-38     	; 0xfc0 <__udivmodsi4_loop>
     fe6:	60 95       	com	r22
     fe8:	70 95       	com	r23
     fea:	80 95       	com	r24
     fec:	90 95       	com	r25
     fee:	9b 01       	movw	r18, r22
     ff0:	ac 01       	movw	r20, r24
     ff2:	bd 01       	movw	r22, r26
     ff4:	cf 01       	movw	r24, r30
     ff6:	08 95       	ret

00000ff8 <__umulhisi3>:
     ff8:	a2 9f       	mul	r26, r18
     ffa:	b0 01       	movw	r22, r0
     ffc:	b3 9f       	mul	r27, r19
     ffe:	c0 01       	movw	r24, r0
    1000:	a3 9f       	mul	r26, r19
    1002:	70 0d       	add	r23, r0
    1004:	81 1d       	adc	r24, r1
    1006:	11 24       	eor	r1, r1
    1008:	91 1d       	adc	r25, r1
    100a:	b2 9f       	mul	r27, r18
    100c:	70 0d       	add	r23, r0
    100e:	81 1d       	adc	r24, r1
    1010:	11 24       	eor	r1, r1
    1012:	91 1d       	adc	r25, r1
    1014:	08 95       	ret

00001016 <sprintf>:
    1016:	ae e0       	ldi	r26, 0x0E	; 14
    1018:	b0 e0       	ldi	r27, 0x00	; 0
    101a:	e1 e1       	ldi	r30, 0x11	; 17
    101c:	f8 e0       	ldi	r31, 0x08	; 8
    101e:	0c 94 cc 0a 	jmp	0x1598	; 0x1598 <__prologue_saves__+0x1c>
    1022:	0d 89       	ldd	r16, Y+21	; 0x15
    1024:	1e 89       	ldd	r17, Y+22	; 0x16
    1026:	86 e0       	ldi	r24, 0x06	; 6
    1028:	8c 83       	std	Y+4, r24	; 0x04
    102a:	1a 83       	std	Y+2, r17	; 0x02
    102c:	09 83       	std	Y+1, r16	; 0x01
    102e:	8f ef       	ldi	r24, 0xFF	; 255
    1030:	9f e7       	ldi	r25, 0x7F	; 127
    1032:	9e 83       	std	Y+6, r25	; 0x06
    1034:	8d 83       	std	Y+5, r24	; 0x05
    1036:	ae 01       	movw	r20, r28
    1038:	47 5e       	subi	r20, 0xE7	; 231
    103a:	5f 4f       	sbci	r21, 0xFF	; 255
    103c:	6f 89       	ldd	r22, Y+23	; 0x17
    103e:	78 8d       	ldd	r23, Y+24	; 0x18
    1040:	ce 01       	movw	r24, r28
    1042:	01 96       	adiw	r24, 0x01	; 1
    1044:	0e 94 2d 08 	call	0x105a	; 0x105a <vfprintf>
    1048:	ef 81       	ldd	r30, Y+7	; 0x07
    104a:	f8 85       	ldd	r31, Y+8	; 0x08
    104c:	e0 0f       	add	r30, r16
    104e:	f1 1f       	adc	r31, r17
    1050:	10 82       	st	Z, r1
    1052:	2e 96       	adiw	r28, 0x0e	; 14
    1054:	e4 e0       	ldi	r30, 0x04	; 4
    1056:	0c 94 e8 0a 	jmp	0x15d0	; 0x15d0 <__epilogue_restores__+0x1c>

0000105a <vfprintf>:
    105a:	ab e0       	ldi	r26, 0x0B	; 11
    105c:	b0 e0       	ldi	r27, 0x00	; 0
    105e:	e3 e3       	ldi	r30, 0x33	; 51
    1060:	f8 e0       	ldi	r31, 0x08	; 8
    1062:	0c 94 be 0a 	jmp	0x157c	; 0x157c <__prologue_saves__>
    1066:	6c 01       	movw	r12, r24
    1068:	7b 01       	movw	r14, r22
    106a:	8a 01       	movw	r16, r20
    106c:	fc 01       	movw	r30, r24
    106e:	17 82       	std	Z+7, r1	; 0x07
    1070:	16 82       	std	Z+6, r1	; 0x06
    1072:	83 81       	ldd	r24, Z+3	; 0x03
    1074:	81 ff       	sbrs	r24, 1
    1076:	cc c1       	rjmp	.+920    	; 0x1410 <vfprintf+0x3b6>
    1078:	ce 01       	movw	r24, r28
    107a:	01 96       	adiw	r24, 0x01	; 1
    107c:	3c 01       	movw	r6, r24
    107e:	f6 01       	movw	r30, r12
    1080:	93 81       	ldd	r25, Z+3	; 0x03
    1082:	f7 01       	movw	r30, r14
    1084:	93 fd       	sbrc	r25, 3
    1086:	85 91       	lpm	r24, Z+
    1088:	93 ff       	sbrs	r25, 3
    108a:	81 91       	ld	r24, Z+
    108c:	7f 01       	movw	r14, r30
    108e:	88 23       	and	r24, r24
    1090:	09 f4       	brne	.+2      	; 0x1094 <vfprintf+0x3a>
    1092:	ba c1       	rjmp	.+884    	; 0x1408 <vfprintf+0x3ae>
    1094:	85 32       	cpi	r24, 0x25	; 37
    1096:	39 f4       	brne	.+14     	; 0x10a6 <vfprintf+0x4c>
    1098:	93 fd       	sbrc	r25, 3
    109a:	85 91       	lpm	r24, Z+
    109c:	93 ff       	sbrs	r25, 3
    109e:	81 91       	ld	r24, Z+
    10a0:	7f 01       	movw	r14, r30
    10a2:	85 32       	cpi	r24, 0x25	; 37
    10a4:	29 f4       	brne	.+10     	; 0x10b0 <vfprintf+0x56>
    10a6:	b6 01       	movw	r22, r12
    10a8:	90 e0       	ldi	r25, 0x00	; 0
    10aa:	0e 94 24 0a 	call	0x1448	; 0x1448 <fputc>
    10ae:	e7 cf       	rjmp	.-50     	; 0x107e <vfprintf+0x24>
    10b0:	91 2c       	mov	r9, r1
    10b2:	21 2c       	mov	r2, r1
    10b4:	31 2c       	mov	r3, r1
    10b6:	ff e1       	ldi	r31, 0x1F	; 31
    10b8:	f3 15       	cp	r31, r3
    10ba:	d8 f0       	brcs	.+54     	; 0x10f2 <vfprintf+0x98>
    10bc:	8b 32       	cpi	r24, 0x2B	; 43
    10be:	79 f0       	breq	.+30     	; 0x10de <vfprintf+0x84>
    10c0:	38 f4       	brcc	.+14     	; 0x10d0 <vfprintf+0x76>
    10c2:	80 32       	cpi	r24, 0x20	; 32
    10c4:	79 f0       	breq	.+30     	; 0x10e4 <vfprintf+0x8a>
    10c6:	83 32       	cpi	r24, 0x23	; 35
    10c8:	a1 f4       	brne	.+40     	; 0x10f2 <vfprintf+0x98>
    10ca:	23 2d       	mov	r18, r3
    10cc:	20 61       	ori	r18, 0x10	; 16
    10ce:	1d c0       	rjmp	.+58     	; 0x110a <vfprintf+0xb0>
    10d0:	8d 32       	cpi	r24, 0x2D	; 45
    10d2:	61 f0       	breq	.+24     	; 0x10ec <vfprintf+0x92>
    10d4:	80 33       	cpi	r24, 0x30	; 48
    10d6:	69 f4       	brne	.+26     	; 0x10f2 <vfprintf+0x98>
    10d8:	23 2d       	mov	r18, r3
    10da:	21 60       	ori	r18, 0x01	; 1
    10dc:	16 c0       	rjmp	.+44     	; 0x110a <vfprintf+0xb0>
    10de:	83 2d       	mov	r24, r3
    10e0:	82 60       	ori	r24, 0x02	; 2
    10e2:	38 2e       	mov	r3, r24
    10e4:	e3 2d       	mov	r30, r3
    10e6:	e4 60       	ori	r30, 0x04	; 4
    10e8:	3e 2e       	mov	r3, r30
    10ea:	2a c0       	rjmp	.+84     	; 0x1140 <vfprintf+0xe6>
    10ec:	f3 2d       	mov	r31, r3
    10ee:	f8 60       	ori	r31, 0x08	; 8
    10f0:	1d c0       	rjmp	.+58     	; 0x112c <vfprintf+0xd2>
    10f2:	37 fc       	sbrc	r3, 7
    10f4:	2d c0       	rjmp	.+90     	; 0x1150 <vfprintf+0xf6>
    10f6:	20 ed       	ldi	r18, 0xD0	; 208
    10f8:	28 0f       	add	r18, r24
    10fa:	2a 30       	cpi	r18, 0x0A	; 10
    10fc:	40 f0       	brcs	.+16     	; 0x110e <vfprintf+0xb4>
    10fe:	8e 32       	cpi	r24, 0x2E	; 46
    1100:	b9 f4       	brne	.+46     	; 0x1130 <vfprintf+0xd6>
    1102:	36 fc       	sbrc	r3, 6
    1104:	81 c1       	rjmp	.+770    	; 0x1408 <vfprintf+0x3ae>
    1106:	23 2d       	mov	r18, r3
    1108:	20 64       	ori	r18, 0x40	; 64
    110a:	32 2e       	mov	r3, r18
    110c:	19 c0       	rjmp	.+50     	; 0x1140 <vfprintf+0xe6>
    110e:	36 fe       	sbrs	r3, 6
    1110:	06 c0       	rjmp	.+12     	; 0x111e <vfprintf+0xc4>
    1112:	8a e0       	ldi	r24, 0x0A	; 10
    1114:	98 9e       	mul	r9, r24
    1116:	20 0d       	add	r18, r0
    1118:	11 24       	eor	r1, r1
    111a:	92 2e       	mov	r9, r18
    111c:	11 c0       	rjmp	.+34     	; 0x1140 <vfprintf+0xe6>
    111e:	ea e0       	ldi	r30, 0x0A	; 10
    1120:	2e 9e       	mul	r2, r30
    1122:	20 0d       	add	r18, r0
    1124:	11 24       	eor	r1, r1
    1126:	22 2e       	mov	r2, r18
    1128:	f3 2d       	mov	r31, r3
    112a:	f0 62       	ori	r31, 0x20	; 32
    112c:	3f 2e       	mov	r3, r31
    112e:	08 c0       	rjmp	.+16     	; 0x1140 <vfprintf+0xe6>
    1130:	8c 36       	cpi	r24, 0x6C	; 108
    1132:	21 f4       	brne	.+8      	; 0x113c <vfprintf+0xe2>
    1134:	83 2d       	mov	r24, r3
    1136:	80 68       	ori	r24, 0x80	; 128
    1138:	38 2e       	mov	r3, r24
    113a:	02 c0       	rjmp	.+4      	; 0x1140 <vfprintf+0xe6>
    113c:	88 36       	cpi	r24, 0x68	; 104
    113e:	41 f4       	brne	.+16     	; 0x1150 <vfprintf+0xf6>
    1140:	f7 01       	movw	r30, r14
    1142:	93 fd       	sbrc	r25, 3
    1144:	85 91       	lpm	r24, Z+
    1146:	93 ff       	sbrs	r25, 3
    1148:	81 91       	ld	r24, Z+
    114a:	7f 01       	movw	r14, r30
    114c:	81 11       	cpse	r24, r1
    114e:	b3 cf       	rjmp	.-154    	; 0x10b6 <vfprintf+0x5c>
    1150:	98 2f       	mov	r25, r24
    1152:	9f 7d       	andi	r25, 0xDF	; 223
    1154:	95 54       	subi	r25, 0x45	; 69
    1156:	93 30       	cpi	r25, 0x03	; 3
    1158:	28 f4       	brcc	.+10     	; 0x1164 <vfprintf+0x10a>
    115a:	0c 5f       	subi	r16, 0xFC	; 252
    115c:	1f 4f       	sbci	r17, 0xFF	; 255
    115e:	9f e3       	ldi	r25, 0x3F	; 63
    1160:	99 83       	std	Y+1, r25	; 0x01
    1162:	0d c0       	rjmp	.+26     	; 0x117e <vfprintf+0x124>
    1164:	83 36       	cpi	r24, 0x63	; 99
    1166:	31 f0       	breq	.+12     	; 0x1174 <vfprintf+0x11a>
    1168:	83 37       	cpi	r24, 0x73	; 115
    116a:	71 f0       	breq	.+28     	; 0x1188 <vfprintf+0x12e>
    116c:	83 35       	cpi	r24, 0x53	; 83
    116e:	09 f0       	breq	.+2      	; 0x1172 <vfprintf+0x118>
    1170:	59 c0       	rjmp	.+178    	; 0x1224 <vfprintf+0x1ca>
    1172:	21 c0       	rjmp	.+66     	; 0x11b6 <vfprintf+0x15c>
    1174:	f8 01       	movw	r30, r16
    1176:	80 81       	ld	r24, Z
    1178:	89 83       	std	Y+1, r24	; 0x01
    117a:	0e 5f       	subi	r16, 0xFE	; 254
    117c:	1f 4f       	sbci	r17, 0xFF	; 255
    117e:	88 24       	eor	r8, r8
    1180:	83 94       	inc	r8
    1182:	91 2c       	mov	r9, r1
    1184:	53 01       	movw	r10, r6
    1186:	13 c0       	rjmp	.+38     	; 0x11ae <vfprintf+0x154>
    1188:	28 01       	movw	r4, r16
    118a:	f2 e0       	ldi	r31, 0x02	; 2
    118c:	4f 0e       	add	r4, r31
    118e:	51 1c       	adc	r5, r1
    1190:	f8 01       	movw	r30, r16
    1192:	a0 80       	ld	r10, Z
    1194:	b1 80       	ldd	r11, Z+1	; 0x01
    1196:	36 fe       	sbrs	r3, 6
    1198:	03 c0       	rjmp	.+6      	; 0x11a0 <vfprintf+0x146>
    119a:	69 2d       	mov	r22, r9
    119c:	70 e0       	ldi	r23, 0x00	; 0
    119e:	02 c0       	rjmp	.+4      	; 0x11a4 <vfprintf+0x14a>
    11a0:	6f ef       	ldi	r22, 0xFF	; 255
    11a2:	7f ef       	ldi	r23, 0xFF	; 255
    11a4:	c5 01       	movw	r24, r10
    11a6:	0e 94 19 0a 	call	0x1432	; 0x1432 <strnlen>
    11aa:	4c 01       	movw	r8, r24
    11ac:	82 01       	movw	r16, r4
    11ae:	f3 2d       	mov	r31, r3
    11b0:	ff 77       	andi	r31, 0x7F	; 127
    11b2:	3f 2e       	mov	r3, r31
    11b4:	16 c0       	rjmp	.+44     	; 0x11e2 <vfprintf+0x188>
    11b6:	28 01       	movw	r4, r16
    11b8:	22 e0       	ldi	r18, 0x02	; 2
    11ba:	42 0e       	add	r4, r18
    11bc:	51 1c       	adc	r5, r1
    11be:	f8 01       	movw	r30, r16
    11c0:	a0 80       	ld	r10, Z
    11c2:	b1 80       	ldd	r11, Z+1	; 0x01
    11c4:	36 fe       	sbrs	r3, 6
    11c6:	03 c0       	rjmp	.+6      	; 0x11ce <vfprintf+0x174>
    11c8:	69 2d       	mov	r22, r9
    11ca:	70 e0       	ldi	r23, 0x00	; 0
    11cc:	02 c0       	rjmp	.+4      	; 0x11d2 <vfprintf+0x178>
    11ce:	6f ef       	ldi	r22, 0xFF	; 255
    11d0:	7f ef       	ldi	r23, 0xFF	; 255
    11d2:	c5 01       	movw	r24, r10
    11d4:	0e 94 0e 0a 	call	0x141c	; 0x141c <strnlen_P>
    11d8:	4c 01       	movw	r8, r24
    11da:	f3 2d       	mov	r31, r3
    11dc:	f0 68       	ori	r31, 0x80	; 128
    11de:	3f 2e       	mov	r3, r31
    11e0:	82 01       	movw	r16, r4
    11e2:	33 fc       	sbrc	r3, 3
    11e4:	1b c0       	rjmp	.+54     	; 0x121c <vfprintf+0x1c2>
    11e6:	82 2d       	mov	r24, r2
    11e8:	90 e0       	ldi	r25, 0x00	; 0
    11ea:	88 16       	cp	r8, r24
    11ec:	99 06       	cpc	r9, r25
    11ee:	b0 f4       	brcc	.+44     	; 0x121c <vfprintf+0x1c2>
    11f0:	b6 01       	movw	r22, r12
    11f2:	80 e2       	ldi	r24, 0x20	; 32
    11f4:	90 e0       	ldi	r25, 0x00	; 0
    11f6:	0e 94 24 0a 	call	0x1448	; 0x1448 <fputc>
    11fa:	2a 94       	dec	r2
    11fc:	f4 cf       	rjmp	.-24     	; 0x11e6 <vfprintf+0x18c>
    11fe:	f5 01       	movw	r30, r10
    1200:	37 fc       	sbrc	r3, 7
    1202:	85 91       	lpm	r24, Z+
    1204:	37 fe       	sbrs	r3, 7
    1206:	81 91       	ld	r24, Z+
    1208:	5f 01       	movw	r10, r30
    120a:	b6 01       	movw	r22, r12
    120c:	90 e0       	ldi	r25, 0x00	; 0
    120e:	0e 94 24 0a 	call	0x1448	; 0x1448 <fputc>
    1212:	21 10       	cpse	r2, r1
    1214:	2a 94       	dec	r2
    1216:	21 e0       	ldi	r18, 0x01	; 1
    1218:	82 1a       	sub	r8, r18
    121a:	91 08       	sbc	r9, r1
    121c:	81 14       	cp	r8, r1
    121e:	91 04       	cpc	r9, r1
    1220:	71 f7       	brne	.-36     	; 0x11fe <vfprintf+0x1a4>
    1222:	e8 c0       	rjmp	.+464    	; 0x13f4 <vfprintf+0x39a>
    1224:	84 36       	cpi	r24, 0x64	; 100
    1226:	11 f0       	breq	.+4      	; 0x122c <vfprintf+0x1d2>
    1228:	89 36       	cpi	r24, 0x69	; 105
    122a:	41 f5       	brne	.+80     	; 0x127c <vfprintf+0x222>
    122c:	f8 01       	movw	r30, r16
    122e:	37 fe       	sbrs	r3, 7
    1230:	07 c0       	rjmp	.+14     	; 0x1240 <vfprintf+0x1e6>
    1232:	60 81       	ld	r22, Z
    1234:	71 81       	ldd	r23, Z+1	; 0x01
    1236:	82 81       	ldd	r24, Z+2	; 0x02
    1238:	93 81       	ldd	r25, Z+3	; 0x03
    123a:	0c 5f       	subi	r16, 0xFC	; 252
    123c:	1f 4f       	sbci	r17, 0xFF	; 255
    123e:	08 c0       	rjmp	.+16     	; 0x1250 <vfprintf+0x1f6>
    1240:	60 81       	ld	r22, Z
    1242:	71 81       	ldd	r23, Z+1	; 0x01
    1244:	07 2e       	mov	r0, r23
    1246:	00 0c       	add	r0, r0
    1248:	88 0b       	sbc	r24, r24
    124a:	99 0b       	sbc	r25, r25
    124c:	0e 5f       	subi	r16, 0xFE	; 254
    124e:	1f 4f       	sbci	r17, 0xFF	; 255
    1250:	f3 2d       	mov	r31, r3
    1252:	ff 76       	andi	r31, 0x6F	; 111
    1254:	3f 2e       	mov	r3, r31
    1256:	97 ff       	sbrs	r25, 7
    1258:	09 c0       	rjmp	.+18     	; 0x126c <vfprintf+0x212>
    125a:	90 95       	com	r25
    125c:	80 95       	com	r24
    125e:	70 95       	com	r23
    1260:	61 95       	neg	r22
    1262:	7f 4f       	sbci	r23, 0xFF	; 255
    1264:	8f 4f       	sbci	r24, 0xFF	; 255
    1266:	9f 4f       	sbci	r25, 0xFF	; 255
    1268:	f0 68       	ori	r31, 0x80	; 128
    126a:	3f 2e       	mov	r3, r31
    126c:	2a e0       	ldi	r18, 0x0A	; 10
    126e:	30 e0       	ldi	r19, 0x00	; 0
    1270:	a3 01       	movw	r20, r6
    1272:	0e 94 60 0a 	call	0x14c0	; 0x14c0 <__ultoa_invert>
    1276:	88 2e       	mov	r8, r24
    1278:	86 18       	sub	r8, r6
    127a:	45 c0       	rjmp	.+138    	; 0x1306 <vfprintf+0x2ac>
    127c:	85 37       	cpi	r24, 0x75	; 117
    127e:	31 f4       	brne	.+12     	; 0x128c <vfprintf+0x232>
    1280:	23 2d       	mov	r18, r3
    1282:	2f 7e       	andi	r18, 0xEF	; 239
    1284:	b2 2e       	mov	r11, r18
    1286:	2a e0       	ldi	r18, 0x0A	; 10
    1288:	30 e0       	ldi	r19, 0x00	; 0
    128a:	25 c0       	rjmp	.+74     	; 0x12d6 <vfprintf+0x27c>
    128c:	93 2d       	mov	r25, r3
    128e:	99 7f       	andi	r25, 0xF9	; 249
    1290:	b9 2e       	mov	r11, r25
    1292:	8f 36       	cpi	r24, 0x6F	; 111
    1294:	c1 f0       	breq	.+48     	; 0x12c6 <vfprintf+0x26c>
    1296:	18 f4       	brcc	.+6      	; 0x129e <vfprintf+0x244>
    1298:	88 35       	cpi	r24, 0x58	; 88
    129a:	79 f0       	breq	.+30     	; 0x12ba <vfprintf+0x260>
    129c:	b5 c0       	rjmp	.+362    	; 0x1408 <vfprintf+0x3ae>
    129e:	80 37       	cpi	r24, 0x70	; 112
    12a0:	19 f0       	breq	.+6      	; 0x12a8 <vfprintf+0x24e>
    12a2:	88 37       	cpi	r24, 0x78	; 120
    12a4:	21 f0       	breq	.+8      	; 0x12ae <vfprintf+0x254>
    12a6:	b0 c0       	rjmp	.+352    	; 0x1408 <vfprintf+0x3ae>
    12a8:	e9 2f       	mov	r30, r25
    12aa:	e0 61       	ori	r30, 0x10	; 16
    12ac:	be 2e       	mov	r11, r30
    12ae:	b4 fe       	sbrs	r11, 4
    12b0:	0d c0       	rjmp	.+26     	; 0x12cc <vfprintf+0x272>
    12b2:	fb 2d       	mov	r31, r11
    12b4:	f4 60       	ori	r31, 0x04	; 4
    12b6:	bf 2e       	mov	r11, r31
    12b8:	09 c0       	rjmp	.+18     	; 0x12cc <vfprintf+0x272>
    12ba:	34 fe       	sbrs	r3, 4
    12bc:	0a c0       	rjmp	.+20     	; 0x12d2 <vfprintf+0x278>
    12be:	29 2f       	mov	r18, r25
    12c0:	26 60       	ori	r18, 0x06	; 6
    12c2:	b2 2e       	mov	r11, r18
    12c4:	06 c0       	rjmp	.+12     	; 0x12d2 <vfprintf+0x278>
    12c6:	28 e0       	ldi	r18, 0x08	; 8
    12c8:	30 e0       	ldi	r19, 0x00	; 0
    12ca:	05 c0       	rjmp	.+10     	; 0x12d6 <vfprintf+0x27c>
    12cc:	20 e1       	ldi	r18, 0x10	; 16
    12ce:	30 e0       	ldi	r19, 0x00	; 0
    12d0:	02 c0       	rjmp	.+4      	; 0x12d6 <vfprintf+0x27c>
    12d2:	20 e1       	ldi	r18, 0x10	; 16
    12d4:	32 e0       	ldi	r19, 0x02	; 2
    12d6:	f8 01       	movw	r30, r16
    12d8:	b7 fe       	sbrs	r11, 7
    12da:	07 c0       	rjmp	.+14     	; 0x12ea <vfprintf+0x290>
    12dc:	60 81       	ld	r22, Z
    12de:	71 81       	ldd	r23, Z+1	; 0x01
    12e0:	82 81       	ldd	r24, Z+2	; 0x02
    12e2:	93 81       	ldd	r25, Z+3	; 0x03
    12e4:	0c 5f       	subi	r16, 0xFC	; 252
    12e6:	1f 4f       	sbci	r17, 0xFF	; 255
    12e8:	06 c0       	rjmp	.+12     	; 0x12f6 <vfprintf+0x29c>
    12ea:	60 81       	ld	r22, Z
    12ec:	71 81       	ldd	r23, Z+1	; 0x01
    12ee:	80 e0       	ldi	r24, 0x00	; 0
    12f0:	90 e0       	ldi	r25, 0x00	; 0
    12f2:	0e 5f       	subi	r16, 0xFE	; 254
    12f4:	1f 4f       	sbci	r17, 0xFF	; 255
    12f6:	a3 01       	movw	r20, r6
    12f8:	0e 94 60 0a 	call	0x14c0	; 0x14c0 <__ultoa_invert>
    12fc:	88 2e       	mov	r8, r24
    12fe:	86 18       	sub	r8, r6
    1300:	fb 2d       	mov	r31, r11
    1302:	ff 77       	andi	r31, 0x7F	; 127
    1304:	3f 2e       	mov	r3, r31
    1306:	36 fe       	sbrs	r3, 6
    1308:	0d c0       	rjmp	.+26     	; 0x1324 <vfprintf+0x2ca>
    130a:	23 2d       	mov	r18, r3
    130c:	2e 7f       	andi	r18, 0xFE	; 254
    130e:	a2 2e       	mov	r10, r18
    1310:	89 14       	cp	r8, r9
    1312:	58 f4       	brcc	.+22     	; 0x132a <vfprintf+0x2d0>
    1314:	34 fe       	sbrs	r3, 4
    1316:	0b c0       	rjmp	.+22     	; 0x132e <vfprintf+0x2d4>
    1318:	32 fc       	sbrc	r3, 2
    131a:	09 c0       	rjmp	.+18     	; 0x132e <vfprintf+0x2d4>
    131c:	83 2d       	mov	r24, r3
    131e:	8e 7e       	andi	r24, 0xEE	; 238
    1320:	a8 2e       	mov	r10, r24
    1322:	05 c0       	rjmp	.+10     	; 0x132e <vfprintf+0x2d4>
    1324:	b8 2c       	mov	r11, r8
    1326:	a3 2c       	mov	r10, r3
    1328:	03 c0       	rjmp	.+6      	; 0x1330 <vfprintf+0x2d6>
    132a:	b8 2c       	mov	r11, r8
    132c:	01 c0       	rjmp	.+2      	; 0x1330 <vfprintf+0x2d6>
    132e:	b9 2c       	mov	r11, r9
    1330:	a4 fe       	sbrs	r10, 4
    1332:	0f c0       	rjmp	.+30     	; 0x1352 <vfprintf+0x2f8>
    1334:	fe 01       	movw	r30, r28
    1336:	e8 0d       	add	r30, r8
    1338:	f1 1d       	adc	r31, r1
    133a:	80 81       	ld	r24, Z
    133c:	80 33       	cpi	r24, 0x30	; 48
    133e:	21 f4       	brne	.+8      	; 0x1348 <vfprintf+0x2ee>
    1340:	9a 2d       	mov	r25, r10
    1342:	99 7e       	andi	r25, 0xE9	; 233
    1344:	a9 2e       	mov	r10, r25
    1346:	09 c0       	rjmp	.+18     	; 0x135a <vfprintf+0x300>
    1348:	a2 fe       	sbrs	r10, 2
    134a:	06 c0       	rjmp	.+12     	; 0x1358 <vfprintf+0x2fe>
    134c:	b3 94       	inc	r11
    134e:	b3 94       	inc	r11
    1350:	04 c0       	rjmp	.+8      	; 0x135a <vfprintf+0x300>
    1352:	8a 2d       	mov	r24, r10
    1354:	86 78       	andi	r24, 0x86	; 134
    1356:	09 f0       	breq	.+2      	; 0x135a <vfprintf+0x300>
    1358:	b3 94       	inc	r11
    135a:	a3 fc       	sbrc	r10, 3
    135c:	11 c0       	rjmp	.+34     	; 0x1380 <vfprintf+0x326>
    135e:	a0 fe       	sbrs	r10, 0
    1360:	06 c0       	rjmp	.+12     	; 0x136e <vfprintf+0x314>
    1362:	b2 14       	cp	r11, r2
    1364:	88 f4       	brcc	.+34     	; 0x1388 <vfprintf+0x32e>
    1366:	28 0c       	add	r2, r8
    1368:	92 2c       	mov	r9, r2
    136a:	9b 18       	sub	r9, r11
    136c:	0e c0       	rjmp	.+28     	; 0x138a <vfprintf+0x330>
    136e:	b2 14       	cp	r11, r2
    1370:	60 f4       	brcc	.+24     	; 0x138a <vfprintf+0x330>
    1372:	b6 01       	movw	r22, r12
    1374:	80 e2       	ldi	r24, 0x20	; 32
    1376:	90 e0       	ldi	r25, 0x00	; 0
    1378:	0e 94 24 0a 	call	0x1448	; 0x1448 <fputc>
    137c:	b3 94       	inc	r11
    137e:	f7 cf       	rjmp	.-18     	; 0x136e <vfprintf+0x314>
    1380:	b2 14       	cp	r11, r2
    1382:	18 f4       	brcc	.+6      	; 0x138a <vfprintf+0x330>
    1384:	2b 18       	sub	r2, r11
    1386:	02 c0       	rjmp	.+4      	; 0x138c <vfprintf+0x332>
    1388:	98 2c       	mov	r9, r8
    138a:	21 2c       	mov	r2, r1
    138c:	a4 fe       	sbrs	r10, 4
    138e:	10 c0       	rjmp	.+32     	; 0x13b0 <vfprintf+0x356>
    1390:	b6 01       	movw	r22, r12
    1392:	80 e3       	ldi	r24, 0x30	; 48
    1394:	90 e0       	ldi	r25, 0x00	; 0
    1396:	0e 94 24 0a 	call	0x1448	; 0x1448 <fputc>
    139a:	a2 fe       	sbrs	r10, 2
    139c:	17 c0       	rjmp	.+46     	; 0x13cc <vfprintf+0x372>
    139e:	a1 fc       	sbrc	r10, 1
    13a0:	03 c0       	rjmp	.+6      	; 0x13a8 <vfprintf+0x34e>
    13a2:	88 e7       	ldi	r24, 0x78	; 120
    13a4:	90 e0       	ldi	r25, 0x00	; 0
    13a6:	02 c0       	rjmp	.+4      	; 0x13ac <vfprintf+0x352>
    13a8:	88 e5       	ldi	r24, 0x58	; 88
    13aa:	90 e0       	ldi	r25, 0x00	; 0
    13ac:	b6 01       	movw	r22, r12
    13ae:	0c c0       	rjmp	.+24     	; 0x13c8 <vfprintf+0x36e>
    13b0:	8a 2d       	mov	r24, r10
    13b2:	86 78       	andi	r24, 0x86	; 134
    13b4:	59 f0       	breq	.+22     	; 0x13cc <vfprintf+0x372>
    13b6:	a1 fe       	sbrs	r10, 1
    13b8:	02 c0       	rjmp	.+4      	; 0x13be <vfprintf+0x364>
    13ba:	8b e2       	ldi	r24, 0x2B	; 43
    13bc:	01 c0       	rjmp	.+2      	; 0x13c0 <vfprintf+0x366>
    13be:	80 e2       	ldi	r24, 0x20	; 32
    13c0:	a7 fc       	sbrc	r10, 7
    13c2:	8d e2       	ldi	r24, 0x2D	; 45
    13c4:	b6 01       	movw	r22, r12
    13c6:	90 e0       	ldi	r25, 0x00	; 0
    13c8:	0e 94 24 0a 	call	0x1448	; 0x1448 <fputc>
    13cc:	89 14       	cp	r8, r9
    13ce:	38 f4       	brcc	.+14     	; 0x13de <vfprintf+0x384>
    13d0:	b6 01       	movw	r22, r12
    13d2:	80 e3       	ldi	r24, 0x30	; 48
    13d4:	90 e0       	ldi	r25, 0x00	; 0
    13d6:	0e 94 24 0a 	call	0x1448	; 0x1448 <fputc>
    13da:	9a 94       	dec	r9
    13dc:	f7 cf       	rjmp	.-18     	; 0x13cc <vfprintf+0x372>
    13de:	8a 94       	dec	r8
    13e0:	f3 01       	movw	r30, r6
    13e2:	e8 0d       	add	r30, r8
    13e4:	f1 1d       	adc	r31, r1
    13e6:	80 81       	ld	r24, Z
    13e8:	b6 01       	movw	r22, r12
    13ea:	90 e0       	ldi	r25, 0x00	; 0
    13ec:	0e 94 24 0a 	call	0x1448	; 0x1448 <fputc>
    13f0:	81 10       	cpse	r8, r1
    13f2:	f5 cf       	rjmp	.-22     	; 0x13de <vfprintf+0x384>
    13f4:	22 20       	and	r2, r2
    13f6:	09 f4       	brne	.+2      	; 0x13fa <vfprintf+0x3a0>
    13f8:	42 ce       	rjmp	.-892    	; 0x107e <vfprintf+0x24>
    13fa:	b6 01       	movw	r22, r12
    13fc:	80 e2       	ldi	r24, 0x20	; 32
    13fe:	90 e0       	ldi	r25, 0x00	; 0
    1400:	0e 94 24 0a 	call	0x1448	; 0x1448 <fputc>
    1404:	2a 94       	dec	r2
    1406:	f6 cf       	rjmp	.-20     	; 0x13f4 <vfprintf+0x39a>
    1408:	f6 01       	movw	r30, r12
    140a:	86 81       	ldd	r24, Z+6	; 0x06
    140c:	97 81       	ldd	r25, Z+7	; 0x07
    140e:	02 c0       	rjmp	.+4      	; 0x1414 <vfprintf+0x3ba>
    1410:	8f ef       	ldi	r24, 0xFF	; 255
    1412:	9f ef       	ldi	r25, 0xFF	; 255
    1414:	2b 96       	adiw	r28, 0x0b	; 11
    1416:	e2 e1       	ldi	r30, 0x12	; 18
    1418:	0c 94 da 0a 	jmp	0x15b4	; 0x15b4 <__epilogue_restores__>

0000141c <strnlen_P>:
    141c:	fc 01       	movw	r30, r24
    141e:	05 90       	lpm	r0, Z+
    1420:	61 50       	subi	r22, 0x01	; 1
    1422:	70 40       	sbci	r23, 0x00	; 0
    1424:	01 10       	cpse	r0, r1
    1426:	d8 f7       	brcc	.-10     	; 0x141e <strnlen_P+0x2>
    1428:	80 95       	com	r24
    142a:	90 95       	com	r25
    142c:	8e 0f       	add	r24, r30
    142e:	9f 1f       	adc	r25, r31
    1430:	08 95       	ret

00001432 <strnlen>:
    1432:	fc 01       	movw	r30, r24
    1434:	61 50       	subi	r22, 0x01	; 1
    1436:	70 40       	sbci	r23, 0x00	; 0
    1438:	01 90       	ld	r0, Z+
    143a:	01 10       	cpse	r0, r1
    143c:	d8 f7       	brcc	.-10     	; 0x1434 <strnlen+0x2>
    143e:	80 95       	com	r24
    1440:	90 95       	com	r25
    1442:	8e 0f       	add	r24, r30
    1444:	9f 1f       	adc	r25, r31
    1446:	08 95       	ret

00001448 <fputc>:
    1448:	0f 93       	push	r16
    144a:	1f 93       	push	r17
    144c:	cf 93       	push	r28
    144e:	df 93       	push	r29
    1450:	fb 01       	movw	r30, r22
    1452:	23 81       	ldd	r18, Z+3	; 0x03
    1454:	21 fd       	sbrc	r18, 1
    1456:	03 c0       	rjmp	.+6      	; 0x145e <fputc+0x16>
    1458:	8f ef       	ldi	r24, 0xFF	; 255
    145a:	9f ef       	ldi	r25, 0xFF	; 255
    145c:	2c c0       	rjmp	.+88     	; 0x14b6 <fputc+0x6e>
    145e:	22 ff       	sbrs	r18, 2
    1460:	16 c0       	rjmp	.+44     	; 0x148e <fputc+0x46>
    1462:	46 81       	ldd	r20, Z+6	; 0x06
    1464:	57 81       	ldd	r21, Z+7	; 0x07
    1466:	24 81       	ldd	r18, Z+4	; 0x04
    1468:	35 81       	ldd	r19, Z+5	; 0x05
    146a:	42 17       	cp	r20, r18
    146c:	53 07       	cpc	r21, r19
    146e:	44 f4       	brge	.+16     	; 0x1480 <fputc+0x38>
    1470:	a0 81       	ld	r26, Z
    1472:	b1 81       	ldd	r27, Z+1	; 0x01
    1474:	9d 01       	movw	r18, r26
    1476:	2f 5f       	subi	r18, 0xFF	; 255
    1478:	3f 4f       	sbci	r19, 0xFF	; 255
    147a:	31 83       	std	Z+1, r19	; 0x01
    147c:	20 83       	st	Z, r18
    147e:	8c 93       	st	X, r24
    1480:	26 81       	ldd	r18, Z+6	; 0x06
    1482:	37 81       	ldd	r19, Z+7	; 0x07
    1484:	2f 5f       	subi	r18, 0xFF	; 255
    1486:	3f 4f       	sbci	r19, 0xFF	; 255
    1488:	37 83       	std	Z+7, r19	; 0x07
    148a:	26 83       	std	Z+6, r18	; 0x06
    148c:	14 c0       	rjmp	.+40     	; 0x14b6 <fputc+0x6e>
    148e:	8b 01       	movw	r16, r22
    1490:	ec 01       	movw	r28, r24
    1492:	fb 01       	movw	r30, r22
    1494:	00 84       	ldd	r0, Z+8	; 0x08
    1496:	f1 85       	ldd	r31, Z+9	; 0x09
    1498:	e0 2d       	mov	r30, r0
    149a:	09 95       	icall
    149c:	89 2b       	or	r24, r25
    149e:	e1 f6       	brne	.-72     	; 0x1458 <fputc+0x10>
    14a0:	d8 01       	movw	r26, r16
    14a2:	16 96       	adiw	r26, 0x06	; 6
    14a4:	8d 91       	ld	r24, X+
    14a6:	9c 91       	ld	r25, X
    14a8:	17 97       	sbiw	r26, 0x07	; 7
    14aa:	01 96       	adiw	r24, 0x01	; 1
    14ac:	17 96       	adiw	r26, 0x07	; 7
    14ae:	9c 93       	st	X, r25
    14b0:	8e 93       	st	-X, r24
    14b2:	16 97       	sbiw	r26, 0x06	; 6
    14b4:	ce 01       	movw	r24, r28
    14b6:	df 91       	pop	r29
    14b8:	cf 91       	pop	r28
    14ba:	1f 91       	pop	r17
    14bc:	0f 91       	pop	r16
    14be:	08 95       	ret

000014c0 <__ultoa_invert>:
    14c0:	fa 01       	movw	r30, r20
    14c2:	aa 27       	eor	r26, r26
    14c4:	28 30       	cpi	r18, 0x08	; 8
    14c6:	51 f1       	breq	.+84     	; 0x151c <__ultoa_invert+0x5c>
    14c8:	20 31       	cpi	r18, 0x10	; 16
    14ca:	81 f1       	breq	.+96     	; 0x152c <__ultoa_invert+0x6c>
    14cc:	e8 94       	clt
    14ce:	6f 93       	push	r22
    14d0:	6e 7f       	andi	r22, 0xFE	; 254
    14d2:	6e 5f       	subi	r22, 0xFE	; 254
    14d4:	7f 4f       	sbci	r23, 0xFF	; 255
    14d6:	8f 4f       	sbci	r24, 0xFF	; 255
    14d8:	9f 4f       	sbci	r25, 0xFF	; 255
    14da:	af 4f       	sbci	r26, 0xFF	; 255
    14dc:	b1 e0       	ldi	r27, 0x01	; 1
    14de:	3e d0       	rcall	.+124    	; 0x155c <__ultoa_invert+0x9c>
    14e0:	b4 e0       	ldi	r27, 0x04	; 4
    14e2:	3c d0       	rcall	.+120    	; 0x155c <__ultoa_invert+0x9c>
    14e4:	67 0f       	add	r22, r23
    14e6:	78 1f       	adc	r23, r24
    14e8:	89 1f       	adc	r24, r25
    14ea:	9a 1f       	adc	r25, r26
    14ec:	a1 1d       	adc	r26, r1
    14ee:	68 0f       	add	r22, r24
    14f0:	79 1f       	adc	r23, r25
    14f2:	8a 1f       	adc	r24, r26
    14f4:	91 1d       	adc	r25, r1
    14f6:	a1 1d       	adc	r26, r1
    14f8:	6a 0f       	add	r22, r26
    14fa:	71 1d       	adc	r23, r1
    14fc:	81 1d       	adc	r24, r1
    14fe:	91 1d       	adc	r25, r1
    1500:	a1 1d       	adc	r26, r1
    1502:	20 d0       	rcall	.+64     	; 0x1544 <__ultoa_invert+0x84>
    1504:	09 f4       	brne	.+2      	; 0x1508 <__ultoa_invert+0x48>
    1506:	68 94       	set
    1508:	3f 91       	pop	r19
    150a:	2a e0       	ldi	r18, 0x0A	; 10
    150c:	26 9f       	mul	r18, r22
    150e:	11 24       	eor	r1, r1
    1510:	30 19       	sub	r19, r0
    1512:	30 5d       	subi	r19, 0xD0	; 208
    1514:	31 93       	st	Z+, r19
    1516:	de f6       	brtc	.-74     	; 0x14ce <__ultoa_invert+0xe>
    1518:	cf 01       	movw	r24, r30
    151a:	08 95       	ret
    151c:	46 2f       	mov	r20, r22
    151e:	47 70       	andi	r20, 0x07	; 7
    1520:	40 5d       	subi	r20, 0xD0	; 208
    1522:	41 93       	st	Z+, r20
    1524:	b3 e0       	ldi	r27, 0x03	; 3
    1526:	0f d0       	rcall	.+30     	; 0x1546 <__ultoa_invert+0x86>
    1528:	c9 f7       	brne	.-14     	; 0x151c <__ultoa_invert+0x5c>
    152a:	f6 cf       	rjmp	.-20     	; 0x1518 <__ultoa_invert+0x58>
    152c:	46 2f       	mov	r20, r22
    152e:	4f 70       	andi	r20, 0x0F	; 15
    1530:	40 5d       	subi	r20, 0xD0	; 208
    1532:	4a 33       	cpi	r20, 0x3A	; 58
    1534:	18 f0       	brcs	.+6      	; 0x153c <__ultoa_invert+0x7c>
    1536:	49 5d       	subi	r20, 0xD9	; 217
    1538:	31 fd       	sbrc	r19, 1
    153a:	40 52       	subi	r20, 0x20	; 32
    153c:	41 93       	st	Z+, r20
    153e:	02 d0       	rcall	.+4      	; 0x1544 <__ultoa_invert+0x84>
    1540:	a9 f7       	brne	.-22     	; 0x152c <__ultoa_invert+0x6c>
    1542:	ea cf       	rjmp	.-44     	; 0x1518 <__ultoa_invert+0x58>
    1544:	b4 e0       	ldi	r27, 0x04	; 4
    1546:	a6 95       	lsr	r26
    1548:	97 95       	ror	r25
    154a:	87 95       	ror	r24
    154c:	77 95       	ror	r23
    154e:	67 95       	ror	r22
    1550:	ba 95       	dec	r27
    1552:	c9 f7       	brne	.-14     	; 0x1546 <__ultoa_invert+0x86>
    1554:	00 97       	sbiw	r24, 0x00	; 0
    1556:	61 05       	cpc	r22, r1
    1558:	71 05       	cpc	r23, r1
    155a:	08 95       	ret
    155c:	9b 01       	movw	r18, r22
    155e:	ac 01       	movw	r20, r24
    1560:	0a 2e       	mov	r0, r26
    1562:	06 94       	lsr	r0
    1564:	57 95       	ror	r21
    1566:	47 95       	ror	r20
    1568:	37 95       	ror	r19
    156a:	27 95       	ror	r18
    156c:	ba 95       	dec	r27
    156e:	c9 f7       	brne	.-14     	; 0x1562 <__ultoa_invert+0xa2>
    1570:	62 0f       	add	r22, r18
    1572:	73 1f       	adc	r23, r19
    1574:	84 1f       	adc	r24, r20
    1576:	95 1f       	adc	r25, r21
    1578:	a0 1d       	adc	r26, r0
    157a:	08 95       	ret

0000157c <__prologue_saves__>:
    157c:	2f 92       	push	r2
    157e:	3f 92       	push	r3
    1580:	4f 92       	push	r4
    1582:	5f 92       	push	r5
    1584:	6f 92       	push	r6
    1586:	7f 92       	push	r7
    1588:	8f 92       	push	r8
    158a:	9f 92       	push	r9
    158c:	af 92       	push	r10
    158e:	bf 92       	push	r11
    1590:	cf 92       	push	r12
    1592:	df 92       	push	r13
    1594:	ef 92       	push	r14
    1596:	ff 92       	push	r15
    1598:	0f 93       	push	r16
    159a:	1f 93       	push	r17
    159c:	cf 93       	push	r28
    159e:	df 93       	push	r29
    15a0:	cd b7       	in	r28, 0x3d	; 61
    15a2:	de b7       	in	r29, 0x3e	; 62
    15a4:	ca 1b       	sub	r28, r26
    15a6:	db 0b       	sbc	r29, r27
    15a8:	0f b6       	in	r0, 0x3f	; 63
    15aa:	f8 94       	cli
    15ac:	de bf       	out	0x3e, r29	; 62
    15ae:	0f be       	out	0x3f, r0	; 63
    15b0:	cd bf       	out	0x3d, r28	; 61
    15b2:	09 94       	ijmp

000015b4 <__epilogue_restores__>:
    15b4:	2a 88       	ldd	r2, Y+18	; 0x12
    15b6:	39 88       	ldd	r3, Y+17	; 0x11
    15b8:	48 88       	ldd	r4, Y+16	; 0x10
    15ba:	5f 84       	ldd	r5, Y+15	; 0x0f
    15bc:	6e 84       	ldd	r6, Y+14	; 0x0e
    15be:	7d 84       	ldd	r7, Y+13	; 0x0d
    15c0:	8c 84       	ldd	r8, Y+12	; 0x0c
    15c2:	9b 84       	ldd	r9, Y+11	; 0x0b
    15c4:	aa 84       	ldd	r10, Y+10	; 0x0a
    15c6:	b9 84       	ldd	r11, Y+9	; 0x09
    15c8:	c8 84       	ldd	r12, Y+8	; 0x08
    15ca:	df 80       	ldd	r13, Y+7	; 0x07
    15cc:	ee 80       	ldd	r14, Y+6	; 0x06
    15ce:	fd 80       	ldd	r15, Y+5	; 0x05
    15d0:	0c 81       	ldd	r16, Y+4	; 0x04
    15d2:	1b 81       	ldd	r17, Y+3	; 0x03
    15d4:	aa 81       	ldd	r26, Y+2	; 0x02
    15d6:	b9 81       	ldd	r27, Y+1	; 0x01
    15d8:	ce 0f       	add	r28, r30
    15da:	d1 1d       	adc	r29, r1
    15dc:	0f b6       	in	r0, 0x3f	; 63
    15de:	f8 94       	cli
    15e0:	de bf       	out	0x3e, r29	; 62
    15e2:	0f be       	out	0x3f, r0	; 63
    15e4:	cd bf       	out	0x3d, r28	; 61
    15e6:	ed 01       	movw	r28, r26
    15e8:	08 95       	ret

000015ea <_exit>:
    15ea:	f8 94       	cli

000015ec <__stop_program>:
    15ec:	ff cf       	rjmp	.-2      	; 0x15ec <__stop_program>
