
AudioToFreqSpectrum.elf:     file format elf32-avr

Sections:
Idx Name          Size      VMA       LMA       File off  Algn
  0 .text         00000dbe  00000000  00000000  00000074  2**1
                  CONTENTS, ALLOC, LOAD, READONLY, CODE
  1 .data         00000000  00800060  00800060  00000e32  2**0
                  CONTENTS, ALLOC, LOAD, DATA
  2 .bss          00000153  00800060  00800060  00000e32  2**0
                  ALLOC
  3 .comment      00000030  00000000  00000000  00000e32  2**0
                  CONTENTS, READONLY
  4 .note.gnu.avr.deviceinfo 0000003c  00000000  00000000  00000e64  2**2
                  CONTENTS, READONLY
  5 .debug_aranges 00000160  00000000  00000000  00000ea0  2**0
                  CONTENTS, READONLY, DEBUGGING
  6 .debug_info   00001c7d  00000000  00000000  00001000  2**0
                  CONTENTS, READONLY, DEBUGGING
  7 .debug_abbrev 00000842  00000000  00000000  00002c7d  2**0
                  CONTENTS, READONLY, DEBUGGING
  8 .debug_line   00000ff5  00000000  00000000  000034bf  2**0
                  CONTENTS, READONLY, DEBUGGING
  9 .debug_frame  00000408  00000000  00000000  000044b4  2**2
                  CONTENTS, READONLY, DEBUGGING
 10 .debug_str    00000612  00000000  00000000  000048bc  2**0
                  CONTENTS, READONLY, DEBUGGING
 11 .debug_loc    00001357  00000000  00000000  00004ece  2**0
                  CONTENTS, READONLY, DEBUGGING
 12 .debug_ranges 00000150  00000000  00000000  00006225  2**0
                  CONTENTS, READONLY, DEBUGGING

Disassembly of section .text:

00000000 <__vectors>:
   0:	0c 94 fa 03 	jmp	0x7f4	; 0x7f4 <__ctors_end>
   4:	0c 94 17 04 	jmp	0x82e	; 0x82e <__bad_interrupt>
   8:	0c 94 17 04 	jmp	0x82e	; 0x82e <__bad_interrupt>
   c:	0c 94 17 04 	jmp	0x82e	; 0x82e <__bad_interrupt>
  10:	0c 94 17 04 	jmp	0x82e	; 0x82e <__bad_interrupt>
  14:	0c 94 17 04 	jmp	0x82e	; 0x82e <__bad_interrupt>
  18:	0c 94 17 04 	jmp	0x82e	; 0x82e <__bad_interrupt>
  1c:	0c 94 17 04 	jmp	0x82e	; 0x82e <__bad_interrupt>
  20:	0c 94 17 04 	jmp	0x82e	; 0x82e <__bad_interrupt>
  24:	0c 94 17 04 	jmp	0x82e	; 0x82e <__bad_interrupt>
  28:	0c 94 17 04 	jmp	0x82e	; 0x82e <__bad_interrupt>
  2c:	0c 94 17 04 	jmp	0x82e	; 0x82e <__bad_interrupt>
  30:	0c 94 17 04 	jmp	0x82e	; 0x82e <__bad_interrupt>
  34:	0c 94 41 06 	jmp	0xc82	; 0xc82 <__vector_13>
  38:	0c 94 17 04 	jmp	0x82e	; 0x82e <__bad_interrupt>
  3c:	0c 94 17 04 	jmp	0x82e	; 0x82e <__bad_interrupt>
  40:	0c 94 17 04 	jmp	0x82e	; 0x82e <__bad_interrupt>
  44:	0c 94 17 04 	jmp	0x82e	; 0x82e <__bad_interrupt>
  48:	0c 94 17 04 	jmp	0x82e	; 0x82e <__bad_interrupt>
  4c:	0c 94 17 04 	jmp	0x82e	; 0x82e <__bad_interrupt>
  50:	0c 94 17 04 	jmp	0x82e	; 0x82e <__bad_interrupt>

00000054 <__trampolines_end>:
	...
  74:	00 05       	cpc	r16, r0
  76:	0b 10       	cpse	r0, r11
  78:	16 1c       	adc	r1, r6
  7a:	21 27       	eor	r18, r17
  7c:	2d 32       	cpi	r18, 0x2D	; 45
  7e:	38 3d       	cpi	r19, 0xD8	; 216
  80:	43 49       	sbci	r20, 0x93	; 147
  82:	4e 54       	subi	r20, 0x4E	; 78
  84:	5a 5f       	subi	r21, 0xFA	; 250
  86:	65 6a       	ori	r22, 0xA5	; 165
  88:	70 76       	andi	r23, 0x60	; 96
  8a:	7b 81       	ldd	r23, Y+3	; 0x03
  8c:	87 8c       	ldd	r8, Z+31	; 0x1f
  8e:	92 97       	sbiw	r26, 0x22	; 34
  90:	9d a3       	std	Y+37, r25	; 0x25
  92:	a8 ae       	std	Y+56, r10	; 0x38
  94:	00 0b       	sbc	r16, r16
  96:	16 21       	and	r17, r6
  98:	2d 38       	cpi	r18, 0x8D	; 141
  9a:	43 4e       	sbci	r20, 0xE3	; 227
  9c:	5a 65       	ori	r21, 0x5A	; 90
  9e:	70 7b       	andi	r23, 0xB0	; 176
  a0:	87 92       	lat	Z, r8
  a2:	9d a8       	ldd	r9, Y+53	; 0x35
  a4:	00 0b       	sbc	r16, r16
  a6:	16 21       	and	r17, r6
  a8:	2c 38       	cpi	r18, 0x8C	; 140
  aa:	43 4e       	sbci	r20, 0xE3	; 227
  ac:	5a 65       	ori	r21, 0x5A	; 90
  ae:	70 7b       	andi	r23, 0xB0	; 176
  b0:	86 92       	lac	Z, r8
  b2:	9d a8       	ldd	r9, Y+53	; 0x35
  b4:	00 10       	cpse	r0, r0
  b6:	21 32       	cpi	r18, 0x21	; 33
  b8:	43 54       	subi	r20, 0x43	; 67
  ba:	65 76       	andi	r22, 0x65	; 101
  bc:	87 97       	sbiw	r24, 0x27	; 39
  be:	a8 05       	cpc	r26, r8
  c0:	16 27       	eor	r17, r22
  c2:	38 49       	sbci	r19, 0x98	; 152
  c4:	5a 6a       	ori	r21, 0xAA	; 170
  c6:	7b 8c       	ldd	r7, Y+27	; 0x1b
  c8:	9d ae       	std	Y+61, r9	; 0x3d
  ca:	0b 1c       	adc	r0, r11
  cc:	2d 3d       	cpi	r18, 0xDD	; 221
  ce:	4e 5f       	subi	r20, 0xFE	; 254
  d0:	70 81       	ld	r23, Z
  d2:	92 a3       	std	Z+34, r25	; 0x22
  d4:	00 16       	cp	r0, r16
  d6:	2d 43       	sbci	r18, 0x3D	; 61
  d8:	5a 70       	andi	r21, 0x0A	; 10
  da:	87 9d       	mul	r24, r7
  dc:	00 16       	cp	r0, r16
  de:	2c 43       	sbci	r18, 0x3C	; 60
  e0:	5a 70       	andi	r21, 0x0A	; 10
  e2:	86 9d       	mul	r24, r6
  e4:	00 16       	cp	r0, r16
  e6:	2d 43       	sbci	r18, 0x3D	; 61
  e8:	59 70       	andi	r21, 0x09	; 9
  ea:	86 9d       	mul	r24, r6
  ec:	00 16       	cp	r0, r16
  ee:	2d 43       	sbci	r18, 0x3D	; 61
  f0:	59 70       	andi	r21, 0x09	; 9
  f2:	87 9d       	mul	r24, r7
  f4:	00 1c       	adc	r0, r0
  f6:	38 54       	subi	r19, 0x48	; 72
  f8:	70 8c       	ldd	r7, Z+24	; 0x18
  fa:	a8 10       	cpse	r10, r8
  fc:	2c 49       	sbci	r18, 0x9C	; 156
  fe:	65 81       	ldd	r22, Z+5	; 0x05
 100:	9d 05       	cpc	r25, r13
 102:	21 3d       	cpi	r18, 0xD1	; 209
 104:	59 76       	andi	r21, 0x69	; 105
 106:	92 ae       	std	Z+58, r9	; 0x3a
 108:	16 32       	cpi	r17, 0x26	; 38
 10a:	4e 6a       	ori	r20, 0xAE	; 174
 10c:	87 a3       	std	Z+39, r24	; 0x27
 10e:	0b 27       	eor	r16, r27
 110:	43 5f       	subi	r20, 0xF3	; 243
 112:	7b 97       	sbiw	r30, 0x1b	; 27
 114:	00 21       	and	r16, r0
 116:	43 65       	ori	r20, 0x53	; 83
 118:	87 a8       	ldd	r8, Z+55	; 0x37
 11a:	16 38       	cpi	r17, 0x86	; 134
 11c:	5a 7b       	andi	r21, 0xBA	; 186
 11e:	9d 0b       	sbc	r25, r29
 120:	2d 4e       	sbci	r18, 0xED	; 237
 122:	70 92 00 21 	sts	0x2100, r7	; 0x802100 <__bss_end+0x1f4d>
 126:	43 65       	ori	r20, 0x53	; 83
 128:	87 a8       	ldd	r8, Z+55	; 0x37
 12a:	16 38       	cpi	r17, 0x86	; 134
 12c:	5a 7b       	andi	r21, 0xBA	; 186
 12e:	9d 0b       	sbc	r25, r29
 130:	2c 4e       	sbci	r18, 0xEC	; 236
 132:	70 92 00 27 	sts	0x2700, r7	; 0x802700 <__bss_end+0x254d>
 136:	4e 76       	andi	r20, 0x6E	; 110
 138:	9d 10       	cpse	r9, r13
 13a:	38 5f       	subi	r19, 0xF8	; 248
 13c:	86 ae       	std	Z+62, r8	; 0x3e
 13e:	21 49       	sbci	r18, 0x91	; 145
 140:	70 97       	sbiw	r30, 0x10	; 16
 142:	0b 32       	cpi	r16, 0x2B	; 43
 144:	59 81       	ldd	r21, Y+1	; 0x01
 146:	a8 1c       	adc	r10, r8
 148:	43 6a       	ori	r20, 0xA3	; 163
 14a:	92 05       	cpc	r25, r2
 14c:	2c 54       	subi	r18, 0x4C	; 76
 14e:	7b a3       	std	Y+35, r23	; 0x23
 150:	16 3d       	cpi	r17, 0xD6	; 214
 152:	65 8c       	ldd	r6, Z+29	; 0x1d
 154:	00 2d       	mov	r16, r0
 156:	5a 87       	std	Y+10, r21	; 0x0a
 158:	00 2c       	mov	r0, r0
 15a:	5a 86       	std	Y+10, r5	; 0x0a
 15c:	00 2d       	mov	r16, r0
 15e:	59 86       	std	Y+9, r5	; 0x09
 160:	00 2d       	mov	r16, r0
 162:	59 87       	std	Y+9, r21	; 0x09
 164:	00 2c       	mov	r0, r0
 166:	5a 87       	std	Y+10, r21	; 0x0a
 168:	b3 2c       	mov	r11, r3
 16a:	59 86       	std	Y+9, r5	; 0x09
 16c:	00 2d       	mov	r16, r0
 16e:	5a 86       	std	Y+10, r5	; 0x0a
 170:	b3 2c       	mov	r11, r3
 172:	5a 87       	std	Y+10, r21	; 0x0a
 174:	00 32       	cpi	r16, 0x20	; 32
 176:	65 97       	sbiw	r28, 0x15	; 21
 178:	16 49       	sbci	r17, 0x96	; 150
 17a:	7b ae       	std	Y+59, r7	; 0x3b
 17c:	2d 5f       	subi	r18, 0xFD	; 253
 17e:	92 10       	cpse	r9, r2
 180:	43 76       	andi	r20, 0x63	; 99
 182:	a8 27       	eor	r26, r24
 184:	5a 8c       	ldd	r5, Y+26	; 0x1a
 186:	0b 3d       	cpi	r16, 0xDB	; 219
 188:	70 a3       	std	Z+32, r23	; 0x20
 18a:	21 54       	subi	r18, 0x41	; 65
 18c:	86 05       	cpc	r24, r6
 18e:	38 6a       	ori	r19, 0xA8	; 168
 190:	9d 1c       	adc	r9, r13
 192:	4e 81       	ldd	r20, Y+6	; 0x06
 194:	00 38       	cpi	r16, 0x80	; 128
 196:	70 a8       	ldd	r7, Z+48	; 0x30
 198:	2c 65       	ori	r18, 0x5C	; 92
 19a:	9d 21       	and	r25, r13
 19c:	59 92       	st	Y+, r5
 19e:	16 4e       	sbci	r17, 0xE6	; 230
 1a0:	87 0b       	sbc	r24, r23
 1a2:	43 7b       	andi	r20, 0xB3	; 179
 1a4:	b3 38       	cpi	r27, 0x83	; 131
 1a6:	70 a8       	ldd	r7, Z+48	; 0x30
 1a8:	2d 65       	ori	r18, 0x5D	; 93
 1aa:	9d 21       	and	r25, r13
 1ac:	5a 92       	st	-Y, r5
 1ae:	16 4e       	sbci	r17, 0xE6	; 230
 1b0:	86 0b       	sbc	r24, r22
 1b2:	43 7b       	andi	r20, 0xB3	; 179
 1b4:	00 3d       	cpi	r16, 0xD0	; 208
 1b6:	7b 05       	cpc	r23, r11
 1b8:	43 81       	ldd	r20, Z+3	; 0x03
 1ba:	0b 49       	sbci	r16, 0x9B	; 155
 1bc:	86 10       	cpse	r8, r6
 1be:	4e 8c       	ldd	r4, Y+30	; 0x1e
 1c0:	16 54       	subi	r17, 0x46	; 70
 1c2:	92 1c       	adc	r9, r2
 1c4:	59 97       	sbiw	r26, 0x19	; 25
 1c6:	21 5f       	subi	r18, 0xF1	; 241
 1c8:	9d 27       	eor	r25, r29
 1ca:	65 a3       	std	Z+37, r22	; 0x25
 1cc:	2c 6a       	ori	r18, 0xAC	; 172
 1ce:	a8 32       	cpi	r26, 0x28	; 40
 1d0:	70 ae       	std	Z+56, r7	; 0x38
 1d2:	38 76       	andi	r19, 0x68	; 104
 1d4:	00 43       	sbci	r16, 0x30	; 48
 1d6:	87 16       	cp	r8, r23
 1d8:	5a 9d       	mul	r21, r10
 1da:	2d 70       	andi	r18, 0x0D	; 13
 1dc:	00 43       	sbci	r16, 0x30	; 48
 1de:	87 16       	cp	r8, r23
 1e0:	5a 9d       	mul	r21, r10
 1e2:	2c 70       	andi	r18, 0x0C	; 12
 1e4:	00 43       	sbci	r16, 0x30	; 48
 1e6:	86 16       	cp	r8, r22
 1e8:	5a 9d       	mul	r21, r10
 1ea:	2c 70       	andi	r18, 0x0C	; 12
 1ec:	00 43       	sbci	r16, 0x30	; 48
 1ee:	86 16       	cp	r8, r22
 1f0:	59 9d       	mul	r21, r9
 1f2:	2d 70       	andi	r18, 0x0D	; 13
 1f4:	00 49       	sbci	r16, 0x90	; 144
 1f6:	92 27       	eor	r25, r18
 1f8:	70 05       	cpc	r23, r0
 1fa:	4e 97       	sbiw	r24, 0x1e	; 30
 1fc:	2d 76       	andi	r18, 0x6D	; 109
 1fe:	0b 54       	subi	r16, 0x4B	; 75
 200:	9d 32       	cpi	r25, 0x2D	; 45
 202:	7b 10       	cpse	r7, r11
 204:	5a a3       	std	Y+34, r21	; 0x22
 206:	38 81       	ld	r19, Y
 208:	16 5f       	subi	r17, 0xF6	; 246
 20a:	a8 3d       	cpi	r26, 0xD8	; 216
 20c:	86 1c       	adc	r8, r6
 20e:	65 ae       	std	Z+61, r6	; 0x3d
 210:	43 8c       	ldd	r4, Z+27	; 0x1b
 212:	21 6a       	ori	r18, 0xA1	; 161
 214:	00 4e       	sbci	r16, 0xE0	; 224
 216:	9d 38       	cpi	r25, 0x8D	; 141
 218:	86 21       	and	r24, r6
 21a:	70 0b       	sbc	r23, r16
 21c:	59 a8       	ldd	r5, Y+49	; 0x31
 21e:	43 92       	.word	0x9243	; ????
 220:	2c 7b       	andi	r18, 0xBC	; 188
 222:	16 65       	ori	r17, 0x56	; 86
 224:	b3 4e       	sbci	r27, 0xE3	; 227
 226:	9d 38       	cpi	r25, 0x8D	; 141
 228:	86 21       	and	r24, r6
 22a:	70 0b       	sbc	r23, r16
 22c:	59 a8       	ldd	r5, Y+49	; 0x31
 22e:	43 92       	.word	0x9243	; ????
 230:	2c 7b       	andi	r18, 0xBC	; 188
 232:	16 65       	ori	r17, 0x56	; 86
 234:	00 54       	subi	r16, 0x40	; 64
 236:	a8 49       	sbci	r26, 0x98	; 152
 238:	9d 3d       	cpi	r25, 0xDD	; 221
 23a:	92 32       	cpi	r25, 0x22	; 34
 23c:	87 27       	eor	r24, r23
 23e:	7b 1c       	adc	r7, r11
 240:	70 10       	cpse	r7, r0
 242:	65 05       	cpc	r22, r5
 244:	5a ae       	std	Y+58, r5	; 0x3a
 246:	4e a3       	std	Y+38, r20	; 0x26
 248:	43 97       	sbiw	r24, 0x13	; 19
 24a:	38 8c       	ldd	r3, Y+24	; 0x18
 24c:	2d 81       	ldd	r18, Y+5	; 0x05
 24e:	21 76       	andi	r18, 0x61	; 97
 250:	16 6a       	ori	r17, 0xA6	; 166
 252:	0b 5f       	subi	r16, 0xFB	; 251

00000254 <sin_lookup>:
 254:	00 00 ae 00 5c 01 0b 02 b9 02 67 03 15 04 c2 04     ....\.....g.....
 264:	6f 05 1c 06 c8 06 74 07 1f 08 c9 08 73 09 1c 0a     o.....t.....s...
 274:	c4 0a 6b 0b 12 0c b7 0c 5c 0d ff 0d a2 0e 43 0f     ..k.....\.....C.
 284:	e3 0f 82 10 1f 11 bb 11 56 12 f0 12 87 13 1e 14     ........V.......
 294:	b3 14 46 15 d7 15 67 16 f5 16 82 17 0c 18 95 18     ..F...g.........
 2a4:	1b 19 a0 19 23 1a a3 1a 22 1b 9f 1b 19 1c 91 1c     ....#...".......
 2b4:	07 1d 7b 1d ec 1d 5b 1e c8 1e 32 1f 9a 1f ff 1f     ..{...[...2.....
 2c4:	62 20 c2 20 20 21 7b 21 d4 21 2a 22 7d 22 ce 22     b .  !{!.!*"}"."
 2d4:	1b 23 67 23 af 23 f5 23 37 24 77 24 b4 24 ef 24     .#g#.#.#7$w$.$.$
 2e4:	26 25 5b 25 8c 25 bb 25 e6 25 0f 26 35 26 58 26     &%[%.%.%.%.&5&X&
 2f4:	78 26 94 26 ae 26 c5 26 d9 26 e9 26 f7 26 02 27     x&.&.&.&.&.&.&.'
 304:	09 27 0e 27 10 27 0e 27 09 27 02 27 f7 26 e9 26     .'.'.'.'.'.'.&.&
 314:	d9 26 c5 26 ae 26 94 26 78 26 58 26 35 26 0f 26     .&.&.&.&x&X&5&.&
 324:	e6 25 bb 25 8c 25 5b 25 26 25 ef 24 b4 24 77 24     .%.%.%[%&%.$.$w$
 334:	37 24 f5 23 af 23 67 23 1b 23 ce 22 7d 22 2a 22     7$.#.#g#.#."}"*"
 344:	d4 21 7b 21 20 21 c2 20 62 20 ff 1f 9a 1f 32 1f     .!{! !. b ....2.
 354:	c8 1e 5b 1e ec 1d 7b 1d 07 1d 91 1c 19 1c 9f 1b     ..[...{.........
 364:	22 1b a3 1a 23 1a a0 19 1b 19 95 18 0c 18 82 17     "...#...........
 374:	f5 16 67 16 d7 15 46 15 b3 14 1e 14 87 13 f0 12     ..g...F.........
 384:	56 12 bb 11 1f 11 82 10 e3 0f 43 0f a2 0e ff 0d     V.........C.....
 394:	5c 0d b7 0c 12 0c 6b 0b c4 0a 1c 0a 73 09 c9 08     \.....k.....s...
 3a4:	1f 08 74 07 c8 06 1c 06 6f 05 c2 04 15 04 67 03     ..t.....o.....g.
 3b4:	b9 02 0b 02 5c 01 ae 00 00 00 52 ff a4 fe f5 fd     ....\.....R.....
 3c4:	47 fd 99 fc eb fb 3e fb 91 fa e4 f9 38 f9 8c f8     G.....>.....8...
 3d4:	e1 f7 37 f7 8d f6 e4 f5 3c f5 95 f4 ee f3 49 f3     ..7.....<.....I.
 3e4:	a4 f2 01 f2 5e f1 bd f0 1d f0 7e ef e1 ee 45 ee     ....^.....~...E.
 3f4:	aa ed 10 ed 79 ec e2 eb 4d eb ba ea 29 ea 99 e9     ....y...M...)...
 404:	0b e9 7e e8 f4 e7 6b e7 e5 e6 60 e6 dd e5 5d e5     ..~...k...`...].
 414:	de e4 61 e4 e7 e3 6f e3 f9 e2 85 e2 14 e2 a5 e1     ..a...o.........
 424:	38 e1 ce e0 66 e0 01 e0 9e df 3e df e0 de 85 de     8...f.....>.....
 434:	2c de d6 dd 83 dd 32 dd e5 dc 99 dc 51 dc 0b dc     ,.....2.....Q...
 444:	c9 db 89 db 4c db 11 db da da a5 da 74 da 45 da     ....L.......t.E.
 454:	1a da f1 d9 cb d9 a8 d9 88 d9 6c d9 52 d9 3b d9     ..........l.R.;.
 464:	27 d9 17 d9 09 d9 fe d8 f7 d8 f2 d8 f0 d8 f2 d8     '...............
 474:	f7 d8 fe d8 09 d9 17 d9 27 d9 3b d9 52 d9 6c d9     ........'.;.R.l.
 484:	88 d9 a8 d9 cb d9 f1 d9 1a da 45 da 74 da a5 da     ..........E.t...
 494:	da da 11 db 4c db 89 db c9 db 0b dc 51 dc 99 dc     ....L.......Q...
 4a4:	e5 dc 32 dd 83 dd d6 dd 2c de 85 de e0 de 3e df     ..2.....,.....>.
 4b4:	9e df 01 e0 66 e0 ce e0 38 e1 a5 e1 14 e2 85 e2     ....f...8.......
 4c4:	f9 e2 6f e3 e7 e3 61 e4 de e4 5d e5 dd e5 60 e6     ..o...a...]...`.
 4d4:	e5 e6 6b e7 f4 e7 7e e8 0b e9 99 e9 29 ea ba ea     ..k...~.....)...
 4e4:	4d eb e2 eb 78 ec 10 ed aa ed 45 ee e1 ee 7e ef     M...x.....E...~.
 4f4:	1d f0 bd f0 5e f1 01 f2 a4 f2 49 f3 ee f3 95 f4     ....^.....I.....
 504:	3c f5 e4 f5 8d f6 37 f7 e1 f7 8c f8 38 f9 e4 f9     <.....7.....8...
 514:	91 fa 3e fb eb fb 99 fc 47 fd f5 fd a4 fe 52 ff     ..>.....G.....R.

00000524 <cos_lookup>:
 524:	10 27 0e 27 09 27 02 27 f7 26 e9 26 d9 26 c5 26     .'.'.'.'.&.&.&.&
 534:	ae 26 94 26 78 26 58 26 35 26 0f 26 e6 25 bb 25     .&.&x&X&5&.&.%.%
 544:	8c 25 5b 25 26 25 ef 24 b4 24 77 24 37 24 f5 23     .%[%&%.$.$w$7$.#
 554:	af 23 67 23 1b 23 ce 22 7d 22 2a 22 d4 21 7b 21     .#g#.#."}"*".!{!
 564:	20 21 c2 20 62 20 ff 1f 9a 1f 32 1f c8 1e 5b 1e      !. b ....2...[.
 574:	ec 1d 7b 1d 07 1d 91 1c 19 1c 9f 1b 22 1b a3 1a     ..{........."...
 584:	23 1a a0 19 1b 19 95 18 0c 18 82 17 f5 16 67 16     #.............g.
 594:	d7 15 46 15 b3 14 1e 14 88 13 f0 12 56 12 bb 11     ..F.........V...
 5a4:	1f 11 82 10 e3 0f 43 0f a2 0e ff 0d 5c 0d b7 0c     ......C.....\...
 5b4:	12 0c 6b 0b c4 0a 1c 0a 73 09 c9 08 1f 08 74 07     ..k.....s.....t.
 5c4:	c8 06 1c 06 6f 05 c2 04 15 04 67 03 b9 02 0b 02     ....o.....g.....
 5d4:	5c 01 ae 00 00 00 52 ff a4 fe f5 fd 47 fd 99 fc     \.....R.....G...
 5e4:	eb fb 3e fb 91 fa e4 f9 38 f9 8c f8 e1 f7 37 f7     ..>.....8.....7.
 5f4:	8d f6 e4 f5 3c f5 95 f4 ee f3 49 f3 a4 f2 01 f2     ....<.....I.....
 604:	5e f1 bd f0 1d f0 7e ef e1 ee 45 ee aa ed 10 ed     ^.....~...E.....
 614:	79 ec e2 eb 4d eb ba ea 29 ea 99 e9 0b e9 7e e8     y...M...).....~.
 624:	f4 e7 6b e7 e5 e6 60 e6 dd e5 5d e5 de e4 61 e4     ..k...`...]...a.
 634:	e7 e3 6f e3 f9 e2 85 e2 14 e2 a5 e1 38 e1 ce e0     ..o.........8...
 644:	66 e0 01 e0 9e df 3e df e0 de 85 de 2c de d6 dd     f.....>.....,...
 654:	83 dd 32 dd e5 dc 99 dc 51 dc 0b dc c9 db 89 db     ..2.....Q.......
 664:	4c db 11 db da da a5 da 74 da 45 da 1a da f1 d9     L.......t.E.....
 674:	cb d9 a8 d9 88 d9 6c d9 52 d9 3b d9 27 d9 17 d9     ......l.R.;.'...
 684:	09 d9 fe d8 f7 d8 f2 d8 f0 d8 f2 d8 f7 d8 fe d8     ................
 694:	09 d9 17 d9 27 d9 3b d9 52 d9 6c d9 88 d9 a8 d9     ....'.;.R.l.....
 6a4:	cb d9 f1 d9 1a da 45 da 74 da a5 da da da 11 db     ......E.t.......
 6b4:	4c db 89 db c9 db 0b dc 51 dc 99 dc e5 dc 32 dd     L.......Q.....2.
 6c4:	83 dd d6 dd 2c de 85 de e0 de 3e df 9e df 01 e0     ....,.....>.....
 6d4:	66 e0 ce e0 38 e1 a5 e1 14 e2 85 e2 f9 e2 6f e3     f...8.........o.
 6e4:	e7 e3 61 e4 de e4 5d e5 dd e5 60 e6 e5 e6 6b e7     ..a...]...`...k.
 6f4:	f4 e7 7e e8 0b e9 99 e9 29 ea ba ea 4d eb e2 eb     ..~.....)...M...
 704:	78 ec 10 ed aa ed 45 ee e1 ee 7e ef 1d f0 bd f0     x.....E...~.....
 714:	5e f1 01 f2 a4 f2 49 f3 ee f3 95 f4 3c f5 e4 f5     ^.....I.....<...
 724:	8d f6 37 f7 e1 f7 8c f8 38 f9 e4 f9 91 fa 3e fb     ..7.....8.....>.
 734:	eb fb 99 fc 47 fd f5 fd a4 fe 52 ff 00 00 ae 00     ....G.....R.....
 744:	5c 01 0b 02 b9 02 67 03 15 04 c2 04 6f 05 1c 06     \.....g.....o...
 754:	c8 06 74 07 1f 08 c9 08 73 09 1c 0a c4 0a 6b 0b     ..t.....s.....k.
 764:	12 0c b7 0c 5c 0d ff 0d a2 0e 43 0f e3 0f 82 10     ....\.....C.....
 774:	1f 11 bb 11 56 12 f0 12 88 13 1e 14 b3 14 46 15     ....V.........F.
 784:	d7 15 67 16 f5 16 82 17 0c 18 95 18 1b 19 a0 19     ..g.............
 794:	23 1a a3 1a 22 1b 9f 1b 19 1c 91 1c 07 1d 7b 1d     #...".........{.
 7a4:	ec 1d 5b 1e c8 1e 32 1f 9a 1f ff 1f 62 20 c2 20     ..[...2.....b . 
 7b4:	20 21 7b 21 d4 21 2a 22 7d 22 ce 22 1b 23 67 23      !{!.!*"}".".#g#
 7c4:	af 23 f5 23 37 24 77 24 b4 24 ef 24 26 25 5b 25     .#.#7$w$.$.$&%[%
 7d4:	8c 25 bb 25 e6 25 0f 26 35 26 58 26 78 26 94 26     .%.%.%.&5&X&x&.&
 7e4:	ae 26 c5 26 d9 26 e9 26 f7 26 02 27 09 27 0e 27     .&.&.&.&.&.'.'.'

000007f4 <__ctors_end>:
 7f4:	11 24       	eor	r1, r1
 7f6:	1f be       	out	0x3f, r1	; 63
 7f8:	cf e5       	ldi	r28, 0x5F	; 95
 7fa:	d8 e0       	ldi	r29, 0x08	; 8
 7fc:	de bf       	out	0x3e, r29	; 62
 7fe:	cd bf       	out	0x3d, r28	; 61

00000800 <__do_copy_data>:
 800:	10 e0       	ldi	r17, 0x00	; 0
 802:	a0 e6       	ldi	r26, 0x60	; 96
 804:	b0 e0       	ldi	r27, 0x00	; 0
 806:	ee eb       	ldi	r30, 0xBE	; 190
 808:	fd e0       	ldi	r31, 0x0D	; 13
 80a:	02 c0       	rjmp	.+4      	; 0x810 <__do_copy_data+0x10>
 80c:	05 90       	lpm	r0, Z+
 80e:	0d 92       	st	X+, r0
 810:	a0 36       	cpi	r26, 0x60	; 96
 812:	b1 07       	cpc	r27, r17
 814:	d9 f7       	brne	.-10     	; 0x80c <__do_copy_data+0xc>

00000816 <__do_clear_bss>:
 816:	21 e0       	ldi	r18, 0x01	; 1
 818:	a0 e6       	ldi	r26, 0x60	; 96
 81a:	b0 e0       	ldi	r27, 0x00	; 0
 81c:	01 c0       	rjmp	.+2      	; 0x820 <.do_clear_bss_start>

0000081e <.do_clear_bss_loop>:
 81e:	1d 92       	st	X+, r1

00000820 <.do_clear_bss_start>:
 820:	a3 3b       	cpi	r26, 0xB3	; 179
 822:	b2 07       	cpc	r27, r18
 824:	e1 f7       	brne	.-8      	; 0x81e <.do_clear_bss_loop>
 826:	0e 94 65 06 	call	0xcca	; 0xcca <main>
 82a:	0c 94 dd 06 	jmp	0xdba	; 0xdba <_exit>

0000082e <__bad_interrupt>:
 82e:	0c 94 00 00 	jmp	0	; 0x0 <__vectors>

00000832 <makeSymbol>:
	float sample_period = 1/(float)SAMPLING_FREQ;
	int i;
	for(i=0;i<N_SAMPLE_POINTS;i++) {
		analogTimeBuff[i] = f(sample_period*i);
	}
}
 832:	1f 93       	push	r17
 834:	cf 93       	push	r28
 836:	df 93       	push	r29
 838:	a0 e4       	ldi	r26, 0x40	; 64
 83a:	b1 e0       	ldi	r27, 0x01	; 1
 83c:	e8 e4       	ldi	r30, 0x48	; 72
 83e:	f1 e0       	ldi	r31, 0x01	; 1
 840:	20 e5       	ldi	r18, 0x50	; 80
 842:	31 e0       	ldi	r19, 0x01	; 1
 844:	11 e0       	ldi	r17, 0x01	; 1
 846:	d3 e0       	ldi	r29, 0x03	; 3
 848:	c7 e0       	ldi	r28, 0x07	; 7
 84a:	7f e0       	ldi	r23, 0x0F	; 15
 84c:	6f e1       	ldi	r22, 0x1F	; 31
 84e:	5f e3       	ldi	r21, 0x3F	; 63
 850:	4f e7       	ldi	r20, 0x7F	; 127
 852:	9f ef       	ldi	r25, 0xFF	; 255
 854:	8d 91       	ld	r24, X+
 856:	8f 30       	cpi	r24, 0x0F	; 15
 858:	10 f0       	brcs	.+4      	; 0x85e <makeSymbol+0x2c>
 85a:	90 83       	st	Z, r25
 85c:	1d c0       	rjmp	.+58     	; 0x898 <__stack+0x39>
 85e:	8c 30       	cpi	r24, 0x0C	; 12
 860:	10 f0       	brcs	.+4      	; 0x866 <__stack+0x7>
 862:	40 83       	st	Z, r20
 864:	19 c0       	rjmp	.+50     	; 0x898 <__stack+0x39>
 866:	8a 30       	cpi	r24, 0x0A	; 10
 868:	10 f0       	brcs	.+4      	; 0x86e <__stack+0xf>
 86a:	50 83       	st	Z, r21
 86c:	15 c0       	rjmp	.+42     	; 0x898 <__stack+0x39>
 86e:	89 30       	cpi	r24, 0x09	; 9
 870:	10 f0       	brcs	.+4      	; 0x876 <__stack+0x17>
 872:	60 83       	st	Z, r22
 874:	11 c0       	rjmp	.+34     	; 0x898 <__stack+0x39>
 876:	88 30       	cpi	r24, 0x08	; 8
 878:	10 f0       	brcs	.+4      	; 0x87e <__stack+0x1f>
 87a:	70 83       	st	Z, r23
 87c:	0d c0       	rjmp	.+26     	; 0x898 <__stack+0x39>
 87e:	85 30       	cpi	r24, 0x05	; 5
 880:	10 f0       	brcs	.+4      	; 0x886 <__stack+0x27>
 882:	c0 83       	st	Z, r28
 884:	09 c0       	rjmp	.+18     	; 0x898 <__stack+0x39>
 886:	84 30       	cpi	r24, 0x04	; 4
 888:	10 f0       	brcs	.+4      	; 0x88e <__stack+0x2f>
 88a:	d0 83       	st	Z, r29
 88c:	05 c0       	rjmp	.+10     	; 0x898 <__stack+0x39>
 88e:	82 30       	cpi	r24, 0x02	; 2
 890:	10 f0       	brcs	.+4      	; 0x896 <__stack+0x37>
 892:	10 83       	st	Z, r17
 894:	01 c0       	rjmp	.+2      	; 0x898 <__stack+0x39>
 896:	10 82       	st	Z, r1
 898:	31 96       	adiw	r30, 0x01	; 1
 89a:	e2 17       	cp	r30, r18
 89c:	f3 07       	cpc	r31, r19
 89e:	d1 f6       	brne	.-76     	; 0x854 <makeSymbol+0x22>
 8a0:	df 91       	pop	r29
 8a2:	cf 91       	pop	r28
 8a4:	1f 91       	pop	r17
 8a6:	08 95       	ret

000008a8 <draw>:
 8a8:	ac eb       	ldi	r26, 0xBC	; 188
 8aa:	b2 e0       	ldi	r27, 0x02	; 2
 8ac:	6f ef       	ldi	r22, 0xFF	; 255
 8ae:	41 e0       	ldi	r20, 0x01	; 1
 8b0:	50 e0       	ldi	r21, 0x00	; 0
 8b2:	1e c0       	rjmp	.+60     	; 0x8f0 <draw+0x48>
 8b4:	18 ba       	out	0x18, r1	; 24
 8b6:	20 81       	ld	r18, Z
 8b8:	2f 30       	cpi	r18, 0x0F	; 15
 8ba:	20 f4       	brcc	.+8      	; 0x8c4 <draw+0x1c>
 8bc:	20 95       	com	r18
 8be:	25 bb       	out	0x15, r18	; 21
 8c0:	62 bb       	out	0x12, r22	; 18
 8c2:	04 c0       	rjmp	.+8      	; 0x8cc <draw+0x24>
 8c4:	65 bb       	out	0x15, r22	; 21
 8c6:	20 81       	ld	r18, Z
 8c8:	20 95       	com	r18
 8ca:	22 bb       	out	0x12, r18	; 18
 8cc:	9a 01       	movw	r18, r20
 8ce:	08 2e       	mov	r0, r24
 8d0:	02 c0       	rjmp	.+4      	; 0x8d6 <draw+0x2e>
 8d2:	22 0f       	add	r18, r18
 8d4:	33 1f       	adc	r19, r19
 8d6:	0a 94       	dec	r0
 8d8:	e2 f7       	brpl	.-8      	; 0x8d2 <draw+0x2a>
 8da:	28 bb       	out	0x18, r18	; 24
 8dc:	24 e6       	ldi	r18, 0x64	; 100
 8de:	2a 95       	dec	r18
 8e0:	f1 f7       	brne	.-4      	; 0x8de <draw+0x36>
 8e2:	01 96       	adiw	r24, 0x01	; 1
 8e4:	31 96       	adiw	r30, 0x01	; 1
 8e6:	88 30       	cpi	r24, 0x08	; 8
 8e8:	91 05       	cpc	r25, r1
 8ea:	21 f7       	brne	.-56     	; 0x8b4 <draw+0xc>
 8ec:	11 97       	sbiw	r26, 0x01	; 1
 8ee:	29 f0       	breq	.+10     	; 0x8fa <draw+0x52>
 8f0:	e8 e4       	ldi	r30, 0x48	; 72
 8f2:	f1 e0       	ldi	r31, 0x01	; 1
 8f4:	80 e0       	ldi	r24, 0x00	; 0
 8f6:	90 e0       	ldi	r25, 0x00	; 0
 8f8:	dd cf       	rjmp	.-70     	; 0x8b4 <draw+0xc>
 8fa:	08 95       	ret

000008fc <clearDot>:
 8fc:	8f ef       	ldi	r24, 0xFF	; 255
 8fe:	88 bb       	out	0x18, r24	; 24
 900:	85 bb       	out	0x15, r24	; 21
 902:	82 bb       	out	0x12, r24	; 18
 904:	08 95       	ret

00000906 <DFT>:
 906:	2f 92       	push	r2
 908:	3f 92       	push	r3
 90a:	4f 92       	push	r4
 90c:	5f 92       	push	r5
 90e:	6f 92       	push	r6
 910:	7f 92       	push	r7
 912:	8f 92       	push	r8
 914:	9f 92       	push	r9
 916:	af 92       	push	r10
 918:	bf 92       	push	r11
 91a:	cf 92       	push	r12
 91c:	df 92       	push	r13
 91e:	ef 92       	push	r14
 920:	ff 92       	push	r15
 922:	0f 93       	push	r16
 924:	1f 93       	push	r17
 926:	cf 93       	push	r28
 928:	df 93       	push	r29
 92a:	00 d0       	rcall	.+0      	; 0x92c <DFT+0x26>
 92c:	00 d0       	rcall	.+0      	; 0x92e <DFT+0x28>
 92e:	00 d0       	rcall	.+0      	; 0x930 <DFT+0x2a>
 930:	cd b7       	in	r28, 0x3d	; 61
 932:	de b7       	in	r29, 0x3e	; 62
 934:	80 ec       	ldi	r24, 0xC0	; 192
 936:	90 e0       	ldi	r25, 0x00	; 0
 938:	9a 83       	std	Y+2, r25	; 0x02
 93a:	89 83       	std	Y+1, r24	; 0x01
 93c:	a4 e5       	ldi	r26, 0x54	; 84
 93e:	b0 e0       	ldi	r27, 0x00	; 0
 940:	bc 83       	std	Y+4, r27	; 0x04
 942:	ab 83       	std	Y+3, r26	; 0x03
 944:	0f 2e       	mov	r0, r31
 946:	f0 ea       	ldi	r31, 0xA0	; 160
 948:	2f 2e       	mov	r2, r31
 94a:	f0 e0       	ldi	r31, 0x00	; 0
 94c:	3f 2e       	mov	r3, r31
 94e:	f0 2d       	mov	r31, r0
 950:	09 81       	ldd	r16, Y+1	; 0x01
 952:	1a 81       	ldd	r17, Y+2	; 0x02
 954:	f8 01       	movw	r30, r16
 956:	14 82       	std	Z+4, r1	; 0x04
 958:	15 82       	std	Z+5, r1	; 0x05
 95a:	16 82       	std	Z+6, r1	; 0x06
 95c:	17 82       	std	Z+7, r1	; 0x07
 95e:	10 82       	st	Z, r1
 960:	11 82       	std	Z+1, r1	; 0x01
 962:	12 82       	std	Z+2, r1	; 0x02
 964:	13 82       	std	Z+3, r1	; 0x03
 966:	0f 2e       	mov	r0, r31
 968:	f0 e6       	ldi	r31, 0x60	; 96
 96a:	af 2e       	mov	r10, r31
 96c:	f0 e0       	ldi	r31, 0x00	; 0
 96e:	bf 2e       	mov	r11, r31
 970:	f0 2d       	mov	r31, r0
 972:	8b 80       	ldd	r8, Y+3	; 0x03
 974:	9c 80       	ldd	r9, Y+4	; 0x04
 976:	f4 01       	movw	r30, r8
 978:	f4 91       	lpm	r31, Z
 97a:	d5 01       	movw	r26, r10
 97c:	cd 90       	ld	r12, X+
 97e:	dd 90       	ld	r13, X+
 980:	5d 01       	movw	r10, r26
 982:	0d 2c       	mov	r0, r13
 984:	00 0c       	add	r0, r0
 986:	ee 08       	sbc	r14, r14
 988:	ff 08       	sbc	r15, r15
 98a:	ef 2f       	mov	r30, r31
 98c:	f0 e0       	ldi	r31, 0x00	; 0
 98e:	ee 0f       	add	r30, r30
 990:	ff 1f       	adc	r31, r31
 992:	ee 0f       	add	r30, r30
 994:	ff 1f       	adc	r31, r31
 996:	fe 83       	std	Y+6, r31	; 0x06
 998:	ed 83       	std	Y+5, r30	; 0x05
 99a:	ec 5d       	subi	r30, 0xDC	; 220
 99c:	fa 4f       	sbci	r31, 0xFA	; 250
 99e:	a5 91       	lpm	r26, Z+
 9a0:	b4 91       	lpm	r27, Z
 9a2:	a7 01       	movw	r20, r14
 9a4:	96 01       	movw	r18, r12
 9a6:	0e 94 99 06 	call	0xd32	; 0xd32 <__mulshisi3>
 9aa:	d8 01       	movw	r26, r16
 9ac:	4d 90       	ld	r4, X+
 9ae:	5d 90       	ld	r5, X+
 9b0:	6d 90       	ld	r6, X+
 9b2:	7c 90       	ld	r7, X
 9b4:	46 0e       	add	r4, r22
 9b6:	57 1e       	adc	r5, r23
 9b8:	68 1e       	adc	r6, r24
 9ba:	79 1e       	adc	r7, r25
 9bc:	f8 01       	movw	r30, r16
 9be:	40 82       	st	Z, r4
 9c0:	51 82       	std	Z+1, r5	; 0x01
 9c2:	62 82       	std	Z+2, r6	; 0x02
 9c4:	73 82       	std	Z+3, r7	; 0x03
 9c6:	ed 81       	ldd	r30, Y+5	; 0x05
 9c8:	fe 81       	ldd	r31, Y+6	; 0x06
 9ca:	ec 5a       	subi	r30, 0xAC	; 172
 9cc:	fd 4f       	sbci	r31, 0xFD	; 253
 9ce:	a5 91       	lpm	r26, Z+
 9d0:	b4 91       	lpm	r27, Z
 9d2:	22 27       	eor	r18, r18
 9d4:	33 27       	eor	r19, r19
 9d6:	a9 01       	movw	r20, r18
 9d8:	2c 19       	sub	r18, r12
 9da:	3d 09       	sbc	r19, r13
 9dc:	4e 09       	sbc	r20, r14
 9de:	5f 09       	sbc	r21, r15
 9e0:	0e 94 99 06 	call	0xd32	; 0xd32 <__mulshisi3>
 9e4:	d8 01       	movw	r26, r16
 9e6:	14 96       	adiw	r26, 0x04	; 4
 9e8:	cd 90       	ld	r12, X+
 9ea:	dd 90       	ld	r13, X+
 9ec:	ed 90       	ld	r14, X+
 9ee:	fc 90       	ld	r15, X
 9f0:	17 97       	sbiw	r26, 0x07	; 7
 9f2:	c6 0e       	add	r12, r22
 9f4:	d7 1e       	adc	r13, r23
 9f6:	e8 1e       	adc	r14, r24
 9f8:	f9 1e       	adc	r15, r25
 9fa:	f8 01       	movw	r30, r16
 9fc:	c4 82       	std	Z+4, r12	; 0x04
 9fe:	d5 82       	std	Z+5, r13	; 0x05
 a00:	e6 82       	std	Z+6, r14	; 0x06
 a02:	f7 82       	std	Z+7, r15	; 0x07
 a04:	ff ef       	ldi	r31, 0xFF	; 255
 a06:	8f 1a       	sub	r8, r31
 a08:	9f 0a       	sbc	r9, r31
 a0a:	a2 14       	cp	r10, r2
 a0c:	b3 04       	cpc	r11, r3
 a0e:	09 f0       	breq	.+2      	; 0xa12 <DFT+0x10c>
 a10:	b2 cf       	rjmp	.-156    	; 0x976 <DFT+0x70>
 a12:	c3 01       	movw	r24, r6
 a14:	b2 01       	movw	r22, r4
 a16:	20 e0       	ldi	r18, 0x00	; 0
 a18:	32 ee       	ldi	r19, 0xE2	; 226
 a1a:	44 e0       	ldi	r20, 0x04	; 4
 a1c:	50 e0       	ldi	r21, 0x00	; 0
 a1e:	0e 94 7a 06 	call	0xcf4	; 0xcf4 <__divmodsi4>
 a22:	d8 01       	movw	r26, r16
 a24:	2d 93       	st	X+, r18
 a26:	3d 93       	st	X+, r19
 a28:	4d 93       	st	X+, r20
 a2a:	5c 93       	st	X, r21
 a2c:	13 97       	sbiw	r26, 0x03	; 3
 a2e:	c7 01       	movw	r24, r14
 a30:	b6 01       	movw	r22, r12
 a32:	20 e0       	ldi	r18, 0x00	; 0
 a34:	32 ee       	ldi	r19, 0xE2	; 226
 a36:	44 e0       	ldi	r20, 0x04	; 4
 a38:	50 e0       	ldi	r21, 0x00	; 0
 a3a:	0e 94 7a 06 	call	0xcf4	; 0xcf4 <__divmodsi4>
 a3e:	f8 01       	movw	r30, r16
 a40:	24 83       	std	Z+4, r18	; 0x04
 a42:	35 83       	std	Z+5, r19	; 0x05
 a44:	46 83       	std	Z+6, r20	; 0x06
 a46:	57 83       	std	Z+7, r21	; 0x07
 a48:	89 81       	ldd	r24, Y+1	; 0x01
 a4a:	9a 81       	ldd	r25, Y+2	; 0x02
 a4c:	08 96       	adiw	r24, 0x08	; 8
 a4e:	9a 83       	std	Y+2, r25	; 0x02
 a50:	89 83       	std	Y+1, r24	; 0x01
 a52:	ab 81       	ldd	r26, Y+3	; 0x03
 a54:	bc 81       	ldd	r27, Y+4	; 0x04
 a56:	90 96       	adiw	r26, 0x20	; 32
 a58:	bc 83       	std	Y+4, r27	; 0x04
 a5a:	ab 83       	std	Y+3, r26	; 0x03
 a5c:	80 54       	subi	r24, 0x40	; 64
 a5e:	91 40       	sbci	r25, 0x01	; 1
 a60:	09 f0       	breq	.+2      	; 0xa64 <DFT+0x15e>
 a62:	76 cf       	rjmp	.-276    	; 0x950 <DFT+0x4a>
 a64:	e8 ec       	ldi	r30, 0xC8	; 200
 a66:	f0 e0       	ldi	r31, 0x00	; 0
 a68:	85 e7       	ldi	r24, 0x75	; 117
 a6a:	91 e0       	ldi	r25, 0x01	; 1
 a6c:	9a 83       	std	Y+2, r25	; 0x02
 a6e:	89 83       	std	Y+1, r24	; 0x01
 a70:	9c 01       	movw	r18, r24
 a72:	df 01       	movw	r26, r30
 a74:	40 81       	ld	r20, Z
 a76:	51 81       	ldd	r21, Z+1	; 0x01
 a78:	62 81       	ldd	r22, Z+2	; 0x02
 a7a:	73 81       	ldd	r23, Z+3	; 0x03
 a7c:	77 23       	and	r23, r23
 a7e:	5c f4       	brge	.+22     	; 0xa96 <DFT+0x190>
 a80:	70 95       	com	r23
 a82:	60 95       	com	r22
 a84:	50 95       	com	r21
 a86:	41 95       	neg	r20
 a88:	5f 4f       	sbci	r21, 0xFF	; 255
 a8a:	6f 4f       	sbci	r22, 0xFF	; 255
 a8c:	7f 4f       	sbci	r23, 0xFF	; 255
 a8e:	40 83       	st	Z, r20
 a90:	51 83       	std	Z+1, r21	; 0x01
 a92:	62 83       	std	Z+2, r22	; 0x02
 a94:	73 83       	std	Z+3, r23	; 0x03
 a96:	14 96       	adiw	r26, 0x04	; 4
 a98:	4d 91       	ld	r20, X+
 a9a:	5d 91       	ld	r21, X+
 a9c:	6d 91       	ld	r22, X+
 a9e:	7c 91       	ld	r23, X
 aa0:	17 97       	sbiw	r26, 0x07	; 7
 aa2:	77 23       	and	r23, r23
 aa4:	6c f4       	brge	.+26     	; 0xac0 <DFT+0x1ba>
 aa6:	70 95       	com	r23
 aa8:	60 95       	com	r22
 aaa:	50 95       	com	r21
 aac:	41 95       	neg	r20
 aae:	5f 4f       	sbci	r21, 0xFF	; 255
 ab0:	6f 4f       	sbci	r22, 0xFF	; 255
 ab2:	7f 4f       	sbci	r23, 0xFF	; 255
 ab4:	14 96       	adiw	r26, 0x04	; 4
 ab6:	4d 93       	st	X+, r20
 ab8:	5d 93       	st	X+, r21
 aba:	6d 93       	st	X+, r22
 abc:	7c 93       	st	X, r23
 abe:	17 97       	sbiw	r26, 0x07	; 7
 ac0:	4d 91       	ld	r20, X+
 ac2:	5d 91       	ld	r21, X+
 ac4:	6d 91       	ld	r22, X+
 ac6:	7c 91       	ld	r23, X
 ac8:	13 97       	sbiw	r26, 0x03	; 3
 aca:	14 96       	adiw	r26, 0x04	; 4
 acc:	8d 91       	ld	r24, X+
 ace:	9d 91       	ld	r25, X+
 ad0:	0d 90       	ld	r0, X+
 ad2:	bc 91       	ld	r27, X
 ad4:	a0 2d       	mov	r26, r0
 ad6:	48 0f       	add	r20, r24
 ad8:	59 1f       	adc	r21, r25
 ada:	6a 1f       	adc	r22, r26
 adc:	7b 1f       	adc	r23, r27
 ade:	db 01       	movw	r26, r22
 ae0:	ca 01       	movw	r24, r20
 ae2:	77 23       	and	r23, r23
 ae4:	1c f4       	brge	.+6      	; 0xaec <DFT+0x1e6>
 ae6:	03 96       	adiw	r24, 0x03	; 3
 ae8:	a1 1d       	adc	r26, r1
 aea:	b1 1d       	adc	r27, r1
 aec:	ac 01       	movw	r20, r24
 aee:	bd 01       	movw	r22, r26
 af0:	75 95       	asr	r23
 af2:	67 95       	ror	r22
 af4:	57 95       	ror	r21
 af6:	47 95       	ror	r20
 af8:	75 95       	asr	r23
 afa:	67 95       	ror	r22
 afc:	57 95       	ror	r21
 afe:	47 95       	ror	r20
 b00:	d9 01       	movw	r26, r18
 b02:	4d 93       	st	X+, r20
 b04:	5d 93       	st	X+, r21
 b06:	9d 01       	movw	r18, r26
 b08:	38 96       	adiw	r30, 0x08	; 8
 b0a:	b1 e0       	ldi	r27, 0x01	; 1
 b0c:	e0 34       	cpi	r30, 0x40	; 64
 b0e:	fb 07       	cpc	r31, r27
 b10:	09 f0       	breq	.+2      	; 0xb14 <DFT+0x20e>
 b12:	af cf       	rjmp	.-162    	; 0xa72 <DFT+0x16c>
 b14:	26 96       	adiw	r28, 0x06	; 6
 b16:	0f b6       	in	r0, 0x3f	; 63
 b18:	f8 94       	cli
 b1a:	de bf       	out	0x3e, r29	; 62
 b1c:	0f be       	out	0x3f, r0	; 63
 b1e:	cd bf       	out	0x3d, r28	; 61
 b20:	df 91       	pop	r29
 b22:	cf 91       	pop	r28
 b24:	1f 91       	pop	r17
 b26:	0f 91       	pop	r16
 b28:	ff 90       	pop	r15
 b2a:	ef 90       	pop	r14
 b2c:	df 90       	pop	r13
 b2e:	cf 90       	pop	r12
 b30:	bf 90       	pop	r11
 b32:	af 90       	pop	r10
 b34:	9f 90       	pop	r9
 b36:	8f 90       	pop	r8
 b38:	7f 90       	pop	r7
 b3a:	6f 90       	pop	r6
 b3c:	5f 90       	pop	r5
 b3e:	4f 90       	pop	r4
 b40:	3f 90       	pop	r3
 b42:	2f 90       	pop	r2
 b44:	08 95       	ret

00000b46 <PORT_Config>:
 b46:	84 b7       	in	r24, 0x34	; 52
 b48:	80 68       	ori	r24, 0x80	; 128
 b4a:	84 bf       	out	0x34, r24	; 52
 b4c:	84 b7       	in	r24, 0x34	; 52
 b4e:	80 68       	ori	r24, 0x80	; 128
 b50:	84 bf       	out	0x34, r24	; 52
 b52:	8f ef       	ldi	r24, 0xFF	; 255
 b54:	81 bb       	out	0x11, r24	; 17
 b56:	84 bb       	out	0x14, r24	; 20
 b58:	87 bb       	out	0x17, r24	; 23
 b5a:	08 95       	ret

00000b5c <initDataTables>:
 b5c:	10 92 72 01 	sts	0x0172, r1	; 0x800172 <analogBuffIndex>
 b60:	e0 e6       	ldi	r30, 0x60	; 96
 b62:	f0 e0       	ldi	r31, 0x00	; 0
 b64:	a3 e7       	ldi	r26, 0x73	; 115
 b66:	b1 e0       	ldi	r27, 0x01	; 1
 b68:	80 ea       	ldi	r24, 0xA0	; 160
 b6a:	90 e0       	ldi	r25, 0x00	; 0
 b6c:	11 92       	st	Z+, r1
 b6e:	11 92       	st	Z+, r1
 b70:	1d 92       	st	X+, r1
 b72:	1d 92       	st	X+, r1
 b74:	e8 17       	cp	r30, r24
 b76:	f9 07       	cpc	r31, r25
 b78:	c9 f7       	brne	.-14     	; 0xb6c <initDataTables+0x10>
 b7a:	e0 ec       	ldi	r30, 0xC0	; 192
 b7c:	f0 e0       	ldi	r31, 0x00	; 0
 b7e:	80 e4       	ldi	r24, 0x40	; 64
 b80:	91 e0       	ldi	r25, 0x01	; 1
 b82:	14 82       	std	Z+4, r1	; 0x04
 b84:	15 82       	std	Z+5, r1	; 0x05
 b86:	16 82       	std	Z+6, r1	; 0x06
 b88:	17 82       	std	Z+7, r1	; 0x07
 b8a:	10 82       	st	Z, r1
 b8c:	11 82       	std	Z+1, r1	; 0x01
 b8e:	12 82       	std	Z+2, r1	; 0x02
 b90:	13 82       	std	Z+3, r1	; 0x03
 b92:	38 96       	adiw	r30, 0x08	; 8
 b94:	e8 17       	cp	r30, r24
 b96:	f9 07       	cpc	r31, r25
 b98:	a1 f7       	brne	.-24     	; 0xb82 <initDataTables+0x26>
 b9a:	08 95       	ret

00000b9c <adcConfig>:
 b9c:	80 e6       	ldi	r24, 0x60	; 96
 b9e:	87 b9       	out	0x07, r24	; 7
 ba0:	83 e8       	ldi	r24, 0x83	; 131
 ba2:	86 b9       	out	0x06, r24	; 6
 ba4:	08 95       	ret

00000ba6 <timerConfig>:
 ba6:	8d e7       	ldi	r24, 0x7D	; 125
 ba8:	90 e0       	ldi	r25, 0x00	; 0
 baa:	9b bd       	out	0x2b, r25	; 43
 bac:	8a bd       	out	0x2a, r24	; 42
 bae:	1f bc       	out	0x2f, r1	; 47
 bb0:	89 e0       	ldi	r24, 0x09	; 9
 bb2:	8e bd       	out	0x2e, r24	; 46
 bb4:	08 95       	ret

00000bb6 <readAnalogValue>:
 bb6:	36 99       	sbic	0x06, 6	; 6
 bb8:	fe cf       	rjmp	.-4      	; 0xbb6 <readAnalogValue>
 bba:	24 b1       	in	r18, 0x04	; 4
 bbc:	30 e0       	ldi	r19, 0x00	; 0
 bbe:	30 93 71 01 	sts	0x0171, r19	; 0x800171 <analogValue+0x1>
 bc2:	20 93 70 01 	sts	0x0170, r18	; 0x800170 <analogValue>
 bc6:	8a 30       	cpi	r24, 0x0A	; 10
 bc8:	b1 f4       	brne	.+44     	; 0xbf6 <readAnalogValue+0x40>
 bca:	85 b1       	in	r24, 0x05	; 5
 bcc:	00 24       	eor	r0, r0
 bce:	22 0f       	add	r18, r18
 bd0:	33 1f       	adc	r19, r19
 bd2:	00 1c       	adc	r0, r0
 bd4:	22 0f       	add	r18, r18
 bd6:	33 1f       	adc	r19, r19
 bd8:	00 1c       	adc	r0, r0
 bda:	23 2f       	mov	r18, r19
 bdc:	30 2d       	mov	r19, r0
 bde:	90 e0       	ldi	r25, 0x00	; 0
 be0:	88 0f       	add	r24, r24
 be2:	99 1f       	adc	r25, r25
 be4:	88 0f       	add	r24, r24
 be6:	99 1f       	adc	r25, r25
 be8:	28 2b       	or	r18, r24
 bea:	39 2b       	or	r19, r25
 bec:	30 93 71 01 	sts	0x0171, r19	; 0x800171 <analogValue+0x1>
 bf0:	20 93 70 01 	sts	0x0170, r18	; 0x800170 <analogValue>
 bf4:	06 c0       	rjmp	.+12     	; 0xc02 <readAnalogValue+0x4c>
 bf6:	85 b1       	in	r24, 0x05	; 5
 bf8:	90 e0       	ldi	r25, 0x00	; 0
 bfa:	90 93 71 01 	sts	0x0171, r25	; 0x800171 <analogValue+0x1>
 bfe:	80 93 70 01 	sts	0x0170, r24	; 0x800170 <analogValue>
 c02:	80 91 70 01 	lds	r24, 0x0170	; 0x800170 <analogValue>
 c06:	90 91 71 01 	lds	r25, 0x0171	; 0x800171 <analogValue+0x1>
 c0a:	08 95       	ret

00000c0c <Sampling>:
 c0c:	cf 93       	push	r28
 c0e:	df 93       	push	r29
 c10:	10 92 72 01 	sts	0x0172, r1	; 0x800172 <analogBuffIndex>
 c14:	1d bc       	out	0x2d, r1	; 45
 c16:	1c bc       	out	0x2c, r1	; 44
 c18:	88 b7       	in	r24, 0x38	; 56
 c1a:	80 61       	ori	r24, 0x10	; 16
 c1c:	88 bf       	out	0x38, r24	; 56
 c1e:	36 9a       	sbi	0x06, 6	; 6
 c20:	08 b6       	in	r0, 0x38	; 56
 c22:	04 fe       	sbrs	r0, 4
 c24:	fd cf       	rjmp	.-6      	; 0xc20 <Sampling+0x14>
 c26:	c0 91 72 01 	lds	r28, 0x0172	; 0x800172 <analogBuffIndex>
 c2a:	d0 e0       	ldi	r29, 0x00	; 0
 c2c:	88 e0       	ldi	r24, 0x08	; 8
 c2e:	0e 94 db 05 	call	0xbb6	; 0xbb6 <readAnalogValue>
 c32:	cc 0f       	add	r28, r28
 c34:	dd 1f       	adc	r29, r29
 c36:	c0 5a       	subi	r28, 0xA0	; 160
 c38:	df 4f       	sbci	r29, 0xFF	; 255
 c3a:	99 83       	std	Y+1, r25	; 0x01
 c3c:	88 83       	st	Y, r24
 c3e:	80 91 72 01 	lds	r24, 0x0172	; 0x800172 <analogBuffIndex>
 c42:	8f 5f       	subi	r24, 0xFF	; 255
 c44:	80 93 72 01 	sts	0x0172, r24	; 0x800172 <analogBuffIndex>
 c48:	80 32       	cpi	r24, 0x20	; 32
 c4a:	20 f3       	brcs	.-56     	; 0xc14 <Sampling+0x8>
 c4c:	df 91       	pop	r29
 c4e:	cf 91       	pop	r28
 c50:	08 95       	ret

00000c52 <Spectrum>:
 c52:	e3 e7       	ldi	r30, 0x73	; 115
 c54:	f1 e0       	ldi	r31, 0x01	; 1
 c56:	a0 ea       	ldi	r26, 0xA0	; 160
 c58:	b0 e0       	ldi	r27, 0x00	; 0
 c5a:	43 eb       	ldi	r20, 0xB3	; 179
 c5c:	51 e0       	ldi	r21, 0x01	; 1
 c5e:	20 81       	ld	r18, Z
 c60:	31 81       	ldd	r19, Z+1	; 0x01
 c62:	82 81       	ldd	r24, Z+2	; 0x02
 c64:	93 81       	ldd	r25, Z+3	; 0x03
 c66:	82 0f       	add	r24, r18
 c68:	93 1f       	adc	r25, r19
 c6a:	99 23       	and	r25, r25
 c6c:	0c f4       	brge	.+2      	; 0xc70 <Spectrum+0x1e>
 c6e:	01 96       	adiw	r24, 0x01	; 1
 c70:	95 95       	asr	r25
 c72:	87 95       	ror	r24
 c74:	8d 93       	st	X+, r24
 c76:	9d 93       	st	X+, r25
 c78:	34 96       	adiw	r30, 0x04	; 4
 c7a:	e4 17       	cp	r30, r20
 c7c:	f5 07       	cpc	r31, r21
 c7e:	79 f7       	brne	.-34     	; 0xc5e <Spectrum+0xc>
 c80:	08 95       	ret

00000c82 <__vector_13>:
 c82:	1f 92       	push	r1
 c84:	0f 92       	push	r0
 c86:	0f b6       	in	r0, 0x3f	; 63
 c88:	0f 92       	push	r0
 c8a:	11 24       	eor	r1, r1
 c8c:	8f 93       	push	r24
 c8e:	8c b1       	in	r24, 0x0c	; 12
 c90:	88 23       	and	r24, r24
 c92:	21 f0       	breq	.+8      	; 0xc9c <__vector_13+0x1a>
 c94:	10 92 51 01 	sts	0x0151, r1	; 0x800151 <transFerIdx+0x1>
 c98:	10 92 50 01 	sts	0x0150, r1	; 0x800150 <transFerIdx>
 c9c:	8f 91       	pop	r24
 c9e:	0f 90       	pop	r0
 ca0:	0f be       	out	0x3f, r0	; 63
 ca2:	0f 90       	pop	r0
 ca4:	1f 90       	pop	r1
 ca6:	18 95       	reti

00000ca8 <DrawInDot>:
 ca8:	e0 ea       	ldi	r30, 0xA0	; 160
 caa:	f0 e0       	ldi	r31, 0x00	; 0
 cac:	a0 e4       	ldi	r26, 0x40	; 64
 cae:	b1 e0       	ldi	r27, 0x01	; 1
 cb0:	20 eb       	ldi	r18, 0xB0	; 176
 cb2:	30 e0       	ldi	r19, 0x00	; 0
 cb4:	80 81       	ld	r24, Z
 cb6:	32 96       	adiw	r30, 0x02	; 2
 cb8:	8d 93       	st	X+, r24
 cba:	e2 17       	cp	r30, r18
 cbc:	f3 07       	cpc	r31, r19
 cbe:	d1 f7       	brne	.-12     	; 0xcb4 <DrawInDot+0xc>
 cc0:	0e 94 19 04 	call	0x832	; 0x832 <makeSymbol>
 cc4:	0e 94 54 04 	call	0x8a8	; 0x8a8 <draw>
 cc8:	08 95       	ret

00000cca <main>:


int main(void)
{

	PORT_Config();
 cca:	0e 94 a3 05 	call	0xb46	; 0xb46 <PORT_Config>
	
	adcConfig();
 cce:	0e 94 ce 05 	call	0xb9c	; 0xb9c <adcConfig>
	timerConfig();
 cd2:	0e 94 d3 05 	call	0xba6	; 0xba6 <timerConfig>
	//UART_Config();
	initDataTables();
 cd6:	0e 94 ae 05 	call	0xb5c	; 0xb5c <initDataTables>

	//set_sleep_mode(SLEEP_MODE_IDLE);
	//sleep_enable();
	while(1)
	{
		Sampling();
 cda:	0e 94 06 06 	call	0xc0c	; 0xc0c <Sampling>
		//testSampling();

		DFT(); // Checked Okay
 cde:	0e 94 83 04 	call	0x906	; 0x906 <DFT>
		
		Spectrum();
 ce2:	0e 94 29 06 	call	0xc52	; 0xc52 <Spectrum>
		
		//TransferData();
		clearDot();
 ce6:	0e 94 7e 04 	call	0x8fc	; 0x8fc <clearDot>
		DrawInDot();
 cea:	0e 94 54 06 	call	0xca8	; 0xca8 <DrawInDot>
		//for(int i=0;i<8;i++) buffer[i]=0;

		//_delay_ms(200);
		clearDot();
 cee:	0e 94 7e 04 	call	0x8fc	; 0x8fc <clearDot>
 cf2:	f3 cf       	rjmp	.-26     	; 0xcda <main+0x10>

00000cf4 <__divmodsi4>:
 cf4:	05 2e       	mov	r0, r21
 cf6:	97 fb       	bst	r25, 7
 cf8:	1e f4       	brtc	.+6      	; 0xd00 <__divmodsi4+0xc>
 cfa:	00 94       	com	r0
 cfc:	0e 94 91 06 	call	0xd22	; 0xd22 <__negsi2>
 d00:	57 fd       	sbrc	r21, 7
 d02:	07 d0       	rcall	.+14     	; 0xd12 <__divmodsi4_neg2>
 d04:	0e 94 a1 06 	call	0xd42	; 0xd42 <__udivmodsi4>
 d08:	07 fc       	sbrc	r0, 7
 d0a:	03 d0       	rcall	.+6      	; 0xd12 <__divmodsi4_neg2>
 d0c:	4e f4       	brtc	.+18     	; 0xd20 <__divmodsi4_exit>
 d0e:	0c 94 91 06 	jmp	0xd22	; 0xd22 <__negsi2>

00000d12 <__divmodsi4_neg2>:
 d12:	50 95       	com	r21
 d14:	40 95       	com	r20
 d16:	30 95       	com	r19
 d18:	21 95       	neg	r18
 d1a:	3f 4f       	sbci	r19, 0xFF	; 255
 d1c:	4f 4f       	sbci	r20, 0xFF	; 255
 d1e:	5f 4f       	sbci	r21, 0xFF	; 255

00000d20 <__divmodsi4_exit>:
 d20:	08 95       	ret

00000d22 <__negsi2>:
 d22:	90 95       	com	r25
 d24:	80 95       	com	r24
 d26:	70 95       	com	r23
 d28:	61 95       	neg	r22
 d2a:	7f 4f       	sbci	r23, 0xFF	; 255
 d2c:	8f 4f       	sbci	r24, 0xFF	; 255
 d2e:	9f 4f       	sbci	r25, 0xFF	; 255
 d30:	08 95       	ret

00000d32 <__mulshisi3>:
 d32:	b7 ff       	sbrs	r27, 7
 d34:	0c 94 c3 06 	jmp	0xd86	; 0xd86 <__muluhisi3>

00000d38 <__mulohisi3>:
 d38:	0e 94 c3 06 	call	0xd86	; 0xd86 <__muluhisi3>
 d3c:	82 1b       	sub	r24, r18
 d3e:	93 0b       	sbc	r25, r19
 d40:	08 95       	ret

00000d42 <__udivmodsi4>:
 d42:	a1 e2       	ldi	r26, 0x21	; 33
 d44:	1a 2e       	mov	r1, r26
 d46:	aa 1b       	sub	r26, r26
 d48:	bb 1b       	sub	r27, r27
 d4a:	fd 01       	movw	r30, r26
 d4c:	0d c0       	rjmp	.+26     	; 0xd68 <__udivmodsi4_ep>

00000d4e <__udivmodsi4_loop>:
 d4e:	aa 1f       	adc	r26, r26
 d50:	bb 1f       	adc	r27, r27
 d52:	ee 1f       	adc	r30, r30
 d54:	ff 1f       	adc	r31, r31
 d56:	a2 17       	cp	r26, r18
 d58:	b3 07       	cpc	r27, r19
 d5a:	e4 07       	cpc	r30, r20
 d5c:	f5 07       	cpc	r31, r21
 d5e:	20 f0       	brcs	.+8      	; 0xd68 <__udivmodsi4_ep>
 d60:	a2 1b       	sub	r26, r18
 d62:	b3 0b       	sbc	r27, r19
 d64:	e4 0b       	sbc	r30, r20
 d66:	f5 0b       	sbc	r31, r21

00000d68 <__udivmodsi4_ep>:
 d68:	66 1f       	adc	r22, r22
 d6a:	77 1f       	adc	r23, r23
 d6c:	88 1f       	adc	r24, r24
 d6e:	99 1f       	adc	r25, r25
 d70:	1a 94       	dec	r1
 d72:	69 f7       	brne	.-38     	; 0xd4e <__udivmodsi4_loop>
 d74:	60 95       	com	r22
 d76:	70 95       	com	r23
 d78:	80 95       	com	r24
 d7a:	90 95       	com	r25
 d7c:	9b 01       	movw	r18, r22
 d7e:	ac 01       	movw	r20, r24
 d80:	bd 01       	movw	r22, r26
 d82:	cf 01       	movw	r24, r30
 d84:	08 95       	ret

00000d86 <__muluhisi3>:
 d86:	0e 94 ce 06 	call	0xd9c	; 0xd9c <__umulhisi3>
 d8a:	a5 9f       	mul	r26, r21
 d8c:	90 0d       	add	r25, r0
 d8e:	b4 9f       	mul	r27, r20
 d90:	90 0d       	add	r25, r0
 d92:	a4 9f       	mul	r26, r20
 d94:	80 0d       	add	r24, r0
 d96:	91 1d       	adc	r25, r1
 d98:	11 24       	eor	r1, r1
 d9a:	08 95       	ret

00000d9c <__umulhisi3>:
 d9c:	a2 9f       	mul	r26, r18
 d9e:	b0 01       	movw	r22, r0
 da0:	b3 9f       	mul	r27, r19
 da2:	c0 01       	movw	r24, r0
 da4:	a3 9f       	mul	r26, r19
 da6:	70 0d       	add	r23, r0
 da8:	81 1d       	adc	r24, r1
 daa:	11 24       	eor	r1, r1
 dac:	91 1d       	adc	r25, r1
 dae:	b2 9f       	mul	r27, r18
 db0:	70 0d       	add	r23, r0
 db2:	81 1d       	adc	r24, r1
 db4:	11 24       	eor	r1, r1
 db6:	91 1d       	adc	r25, r1
 db8:	08 95       	ret

00000dba <_exit>:
 dba:	f8 94       	cli

00000dbc <__stop_program>:
 dbc:	ff cf       	rjmp	.-2      	; 0xdbc <__stop_program>
